Archive member included because of file (symbol)

E:/Debug-Matrix/branches/ME30国内PCI认证/ME30_Matrix/Mpos_Demo_20141017_ADDV2/Mpos_Demo/libs/libc_Cortex-M4_nofpu.a(atoi.o)
                              E:\Debug-Matrix\branches\ME30国内PCI认证\ME30_Matrix\Mpos_Demo_20141017_ADDV2\Mpos_Demo\build\EEEPAY2\ME30/cmd/cmd.o (atoi)
E:/Debug-Matrix/branches/ME30国内PCI认证/ME30_Matrix/Mpos_Demo_20141017_ADDV2/Mpos_Demo/libs/libc_Cortex-M4_nofpu.a(memcmp.o)
                              E:\Debug-Matrix\branches\ME30国内PCI认证\ME30_Matrix\Mpos_Demo_20141017_ADDV2\Mpos_Demo\build\EEEPAY2\ME30/cmd/cmd.o (memcmp)
E:/Debug-Matrix/branches/ME30国内PCI认证/ME30_Matrix/Mpos_Demo_20141017_ADDV2/Mpos_Demo/libs/libc_Cortex-M4_nofpu.a(memcpy.o)
                              E:\Debug-Matrix\branches\ME30国内PCI认证\ME30_Matrix\Mpos_Demo_20141017_ADDV2\Mpos_Demo\build\EEEPAY2\ME30/cmd/cmd.o (memcpy)
E:/Debug-Matrix/branches/ME30国内PCI认证/ME30_Matrix/Mpos_Demo_20141017_ADDV2/Mpos_Demo/libs/libc_Cortex-M4_nofpu.a(memset.o)
                              E:\Debug-Matrix\branches\ME30国内PCI认证\ME30_Matrix\Mpos_Demo_20141017_ADDV2\Mpos_Demo\build\EEEPAY2\ME30/api/api.o (memset)
E:/Debug-Matrix/branches/ME30国内PCI认证/ME30_Matrix/Mpos_Demo_20141017_ADDV2/Mpos_Demo/libs/libc_Cortex-M4_nofpu.a(sprintf.o)
                              E:/Debug-Matrix/branches/ME30国内PCI认证/ME30_Matrix/Mpos_Demo_20141017_ADDV2/Mpos_Demo/configs/ME30/NDK_Sysdep_ME30.o (vsprintf)
E:/Debug-Matrix/branches/ME30国内PCI认证/ME30_Matrix/Mpos_Demo_20141017_ADDV2/Mpos_Demo/libs/libc_Cortex-M4_nofpu.a(strcmp.o)
                              E:\Debug-Matrix\branches\ME30国内PCI认证\ME30_Matrix\Mpos_Demo_20141017_ADDV2\Mpos_Demo\build\EEEPAY2\ME30/cmd/cmd.o (strcmp)
E:/Debug-Matrix/branches/ME30国内PCI认证/ME30_Matrix/Mpos_Demo_20141017_ADDV2/Mpos_Demo/libs/libc_Cortex-M4_nofpu.a(strcpy.o)
                              E:\Debug-Matrix\branches\ME30国内PCI认证\ME30_Matrix\Mpos_Demo_20141017_ADDV2\Mpos_Demo\build\EEEPAY2\ME30/cmd/cmd.o (strcpy)
E:/Debug-Matrix/branches/ME30国内PCI认证/ME30_Matrix/Mpos_Demo_20141017_ADDV2/Mpos_Demo/libs/libc_Cortex-M4_nofpu.a(strlen.o)
                              E:\Debug-Matrix\branches\ME30国内PCI认证\ME30_Matrix\Mpos_Demo_20141017_ADDV2\Mpos_Demo\build\EEEPAY2\ME30/cmd/cmd.o (strlen)
E:/Debug-Matrix/branches/ME30国内PCI认证/ME30_Matrix/Mpos_Demo_20141017_ADDV2/Mpos_Demo/libs/libc_Cortex-M4_nofpu.a(strtol.o)
                              E:/Debug-Matrix/branches/ME30国内PCI认证/ME30_Matrix/Mpos_Demo_20141017_ADDV2/Mpos_Demo/libs/libc_Cortex-M4_nofpu.a(atoi.o) (strtol)
E:/Debug-Matrix/branches/ME30国内PCI认证/ME30_Matrix/Mpos_Demo_20141017_ADDV2/Mpos_Demo/libs/libc_Cortex-M4_nofpu.a(ctype.o)
                              E:/Debug-Matrix/branches/ME30国内PCI认证/ME30_Matrix/Mpos_Demo_20141017_ADDV2/Mpos_Demo/libs/libc_Cortex-M4_nofpu.a(strtol.o) (_ctype)
E:/Debug-Matrix/branches/ME30国内PCI认证/ME30_Matrix/Mpos_Demo_20141017_ADDV2/Mpos_Demo/libs/libc_Cortex-M4_nofpu.a(doprntx.o)
                              E:/Debug-Matrix/branches/ME30国内PCI认证/ME30_Matrix/Mpos_Demo_20141017_ADDV2/Mpos_Demo/libs/libc_Cortex-M4_nofpu.a(sprintf.o) (_doprntx)
E:/Debug-Matrix/branches/ME30国内PCI认证/ME30_Matrix/Mpos_Demo_20141017_ADDV2/Mpos_Demo/libs/libc_Cortex-M4_nofpu.a(memchr.o)
                              E:/Debug-Matrix/branches/ME30国内PCI认证/ME30_Matrix/Mpos_Demo_20141017_ADDV2/Mpos_Demo/libs/libc_Cortex-M4_nofpu.a(doprntx.o) (memchr)

Memory Configuration

Name             Origin             Length             Attributes
RAM              0x1fffe000         0x00008000
NOR              0x00040000         0x00040000
*default*        0x00000000         0xffffffff

Linker script and memory map

LOAD E:/Debug-Matrix/branches/ME30国内PCI认证/ME30_Matrix/Mpos_Demo_20141017_ADDV2/Mpos_Demo/configs/ME30/NDK_Sysdep_ME30.o
LOAD E:\Debug-Matrix\branches\ME30国内PCI认证\ME30_Matrix\Mpos_Demo_20141017_ADDV2\Mpos_Demo\build\EEEPAY2\ME30/api/api.o
LOAD E:\Debug-Matrix\branches\ME30国内PCI认证\ME30_Matrix\Mpos_Demo_20141017_ADDV2\Mpos_Demo\build\EEEPAY2\ME30/cmd/cmd.o
LOAD E:\Debug-Matrix\branches\ME30国内PCI认证\ME30_Matrix\Mpos_Demo_20141017_ADDV2\Mpos_Demo\build\EEEPAY2\ME30/app/app.o
LOAD c:/program files (x86)/gnu tools arm embedded/4.7 2012q4/bin/../lib/gcc/arm-none-eabi/4.7.3/armv7e-m/\libgcc.a

.mod_init       0x00040000       0x28
                0x00040000                _stext = .
 *(.mod.header)
 .mod.header    0x00040000       0x28 E:/Debug-Matrix/branches/ME30国内PCI认证/ME30_Matrix/Mpos_Demo_20141017_ADDV2/Mpos_Demo/configs/ME30/NDK_Sysdep_ME30.o

.text           0x00040028     0x36e6
                0x00040028                . = ALIGN (0x4)
 *(.text)
 .text          0x00040028        0x0 E:/Debug-Matrix/branches/ME30国内PCI认证/ME30_Matrix/Mpos_Demo_20141017_ADDV2/Mpos_Demo/configs/ME30/NDK_Sysdep_ME30.o
 .text          0x00040028      0x520 E:\Debug-Matrix\branches\ME30国内PCI认证\ME30_Matrix\Mpos_Demo_20141017_ADDV2\Mpos_Demo\build\EEEPAY2\ME30/api/api.o
                0x00040028                CommandParse_DataEncryptionOrDecryption
                0x00040028                CommandParse_M1LoadKey
                0x00040028                CommandParse_DataMac
                0x00040028                CommandParse_GetPrnStatus
                0x00040028                CommandParse_PbocCapk_Set
                0x00040028                CommandParse_RFIDPowerup
                0x00040028                CommandParse_SetFont
                0x00040028                CommandParse_Dispstr
                0x00040028                CommandParse_LoadDukpt
                0x00040028                CommandParse_DispImage
                0x00040028                CommandParse_QPboc_Pboc
                0x00040028                CommandParse_OpenRecords
                0x00040028                CommandParse_Pboc_GetData
                0x00040028                CommandParse_PbocAid_Set
                0x00040028                ME_DefaultCmd
                0x00040028                CommandParse_SetFontType
                0x00040028                CommandParse_GetLcdAttr
                0x00040028                CommandParse_OpenCard_ME30
                0x00040028                CommandParse_ScanStringInstruction
                0x00040028                CommandParse_WriteRecord
                0x00040028                CommandParse_GetMagCardAuthen
                0x00040028                CommandParse_SetLcdXY
                0x00040028                CommandParse_IccPowerUp
                0x00040028                CommandParse_LoadWKey
                0x00040028                CommandParse_PasswordInput
                0x00040028                CommandParse_KbGetCode
                0x00040028                CommandParse_RFIDPowerDown
                0x00040028                CommandParse_CheckData
                0x00040028                CommandParse_GetMagCard_ENC
                0x00040028                CommandParse_CommTest
                0x00040028                CommandParse_OpenCard
                0x00040028                CommandParse_SetGreyScale
                0x00040028                CommandParse_SetBacklight
                0x00040028                CommandParse_BlinkingLights
                0x00040028                CommandParse_DownloadMode
                0x00040028                CommandParse_KbHit
                0x00040028                CommandParse_GetTerminalParam
                0x00040028                CommandParse_PrnInit
                0x00040028                CommandParse_ShutDown
                0x00040028                CommandParse_GetRecordNum
                0x00040028                CommandParse_M1Increment
                0x00040028                CommandParse_M1AuthKey
                0x00040028                CommandParse_RFIDAPDU
                0x00040028                CommandParse_Pboc_Standard
                0x00040028                CommandParse_M1StoreKey
                0x00040028                CommandParse_BTDisconnect
                0x00040028                CommandParse_ModifyRecord
                0x00040028                CommandParse_M1Auth
                0x00040028                CommandParse_PaperSkip
                0x00040028                CommandParse_DrawLine
                0x00040028                CommandParse_PrintNormal
                0x00040028                CommandParse_GetFontSize
                0x00040028                CommandParse_ReadDeviceInformation
                0x00040028                CommandParse_ReadDeviceInfoPro
                0x00040028                CommandParse_Pboc_SencAuth
                0x00040028                CommandParse_Pboc_End
                0x00040028                CommandParse_SetFontColor
                0x00040028                CommandParse_GetRecord
                0x00040028                CommandParse_M1ReadBlock
                0x00040028                CommandParse_M1Decrement
                0x00040028                CommandParse_Pboc_GetLastWaterinfo
                0x00040028                CommandParse_SetRefreshMode
                0x00040028                CommandParse_CancelReset
                0x00040028                CommandParse_GetRandomNumber
                0x00040028                CommandParse_GetMagCard_ME30
                0x00040028                CommandParse_KbGetString
                0x00040028                CommandParse_Setting
                0x00040028                CommandParse_SetLineSpace
                0x00040028                CommandParse_CommMode_ME30
                0x00040028                CommandParse_SetDispMode
                0x00040028                CommandParse_WriteEquipmentInformation
                0x00040028                CommandParse_SetTerminalParam
                0x00040028                CommandParse_LoadKey_ME30
                0x00040028                CommandParse_M1WriteBlock
                0x00040028                CommandParse_Refresh
                0x00040028                CommandParse_PasswordInput_ME30
                0x00040028                CommandParse_IccSetType
                0x00040028                CommandParse_GetLcdXY
                0x00040028                CommandParse_Buzzer
                0x00040028                CommandParse_CloseCard
                0x00040028                CommandParse_IccPowerDown
                0x00040028                CommandParse_ClearScreen
                0x00040028                CommandParse_IccDetect
                0x00040028                CommandParse_DrawRectangle
                0x00040028                CommandParse_LoadApp
                0x00040028                CommandParse_LoadMKey
                0x00040028                CommandParse_TranPro_Set
                0x00040028                CommandParse_SetDateTime
                0x00040028                CommandParse_DeviceAuth
                0x00040028                CommandParse_GetDateTime
                0x00040028                CommandParse_LoadMenu
                0x00040028                CommandParse_Iccrw
                0x0004002e                ME_Endian_Swab16
                0x00040038                ME_Endian_Swab32
                0x0004003c                ME_Bcd2Int
                0x0004007a                ME_Int2Bcd
                0x000400d8                ME_ReadLen
                0x000400dc                ME_WriteLen
                0x000400e0                ME_GetVar
                0x0004018a                ME_API_COMInit
                0x000401c4                ME_SetVar
                0x00040314                ME_Printf
                0x00040388                ME_Send_Responsion_To_Host
                0x0004051c                ME_GetCmdOffset
                0x00040520                ME_GetVarOffset
                0x00040524                ME_GetVarLen
                0x0004052c                ME_API_COMClose
                0x00040538                ME_GetMessageType
 .text          0x00040548     0x1b20 E:\Debug-Matrix\branches\ME30国内PCI认证\ME30_Matrix\Mpos_Demo_20141017_ADDV2\Mpos_Demo\build\EEEPAY2\ME30/cmd/cmd.o
                0x00040548                ME_SysGetPosInfo
                0x00040548                ME_SysExtraAction
                0x0004054e                ME_SecKekInit
                0x00040584                ME_FsWrite
                0x000405e8                ME_FsRead
                0x0004068c                Default_ME_MKSetup
                0x0004068c                ME_MKSetup
                0x00040800                ME_ConfigNew
                0x000408d0                ME_ConfigConvert
                0x000409d4                ME_ConfigInit
                0x00040adc                ME_JudgeValue
                0x00040b20                ME_ChangePosDate
                0x00040d50                ME_ChangePosTime
                0x00040f2c                ME_SetDateTime
                0x00040f78                ME_DebugSwitch
                0x0004100c                ME_ScrSetContrast
                0x000410e8                ME_FuncMenu
                0x000411f0                ME_Sysmanage
                0x00041260                ME_SetCommMode
                0x000412d0                ME_Disp_Bitmap
                0x000413d0                ME_PasswordMenu
                0x00041478                ME_BtDisconnect
                0x000414cc                ME_BtParaSet
                0x000415f0                ME_UsbParaSet
                0x00041668                ME_AudioParaSet
                0x00041710                ME_KbHit
                0x00041748                ME_SetFrushTime
                0x00041758                ME31_PEDInit
                0x0004182c                ME31_PEDMain
                0x000418b8                CommandParse_MutualAuth1
                0x000419a0                CommandParse_MutualAuth2
                0x00041b4c                CommandParse_MutualAuth3
                0x00041d30                CommandParse_SetGeoPosition
                0x00041d74                UnionPay_Send
                0x00041eb0                UnionPay_Recv
                0x00041fa0                unionpay
                0x0004202c                CommandParse_UnionPayCall
 .text          0x00042068        0x8 E:/Debug-Matrix/branches/ME30国内PCI认证/ME30_Matrix/Mpos_Demo_20141017_ADDV2/Mpos_Demo/libs/libc_Cortex-M4_nofpu.a(atoi.o)
                0x00042068                atoi
 .text          0x00042070       0x1e E:/Debug-Matrix/branches/ME30国内PCI认证/ME30_Matrix/Mpos_Demo_20141017_ADDV2/Mpos_Demo/libs/libc_Cortex-M4_nofpu.a(memcmp.o)
                0x00042070                memcmp
 .text          0x0004208e       0x12 E:/Debug-Matrix/branches/ME30国内PCI认证/ME30_Matrix/Mpos_Demo_20141017_ADDV2/Mpos_Demo/libs/libc_Cortex-M4_nofpu.a(memcpy.o)
                0x0004208e                memcpy
 .text          0x000420a0       0x10 E:/Debug-Matrix/branches/ME30国内PCI认证/ME30_Matrix/Mpos_Demo_20141017_ADDV2/Mpos_Demo/libs/libc_Cortex-M4_nofpu.a(memset.o)
                0x000420a0                memset
 .text          0x000420b0       0x4c E:/Debug-Matrix/branches/ME30国内PCI认证/ME30_Matrix/Mpos_Demo_20141017_ADDV2/Mpos_Demo/libs/libc_Cortex-M4_nofpu.a(sprintf.o)
                0x000420ba                vsprintf
                0x000420d8                sprintf
 .text          0x000420fc       0x1a E:/Debug-Matrix/branches/ME30国内PCI认证/ME30_Matrix/Mpos_Demo_20141017_ADDV2/Mpos_Demo/libs/libc_Cortex-M4_nofpu.a(strcmp.o)
                0x000420fc                strcmp
 .text          0x00042116        0xe E:/Debug-Matrix/branches/ME30国内PCI认证/ME30_Matrix/Mpos_Demo_20141017_ADDV2/Mpos_Demo/libs/libc_Cortex-M4_nofpu.a(strcpy.o)
                0x00042116                strcpy
 .text          0x00042124       0x10 E:/Debug-Matrix/branches/ME30国内PCI认证/ME30_Matrix/Mpos_Demo_20141017_ADDV2/Mpos_Demo/libs/libc_Cortex-M4_nofpu.a(strlen.o)
                0x00042124                strlen
 .text          0x00042134       0xfc E:/Debug-Matrix/branches/ME30国内PCI认证/ME30_Matrix/Mpos_Demo_20141017_ADDV2/Mpos_Demo/libs/libc_Cortex-M4_nofpu.a(strtol.o)
                0x00042134                strtol
 .text          0x00042230        0x0 E:/Debug-Matrix/branches/ME30国内PCI认证/ME30_Matrix/Mpos_Demo_20141017_ADDV2/Mpos_Demo/libs/libc_Cortex-M4_nofpu.a(ctype.o)
 .text          0x00042230      0x418 E:/Debug-Matrix/branches/ME30国内PCI认证/ME30_Matrix/Mpos_Demo_20141017_ADDV2/Mpos_Demo/libs/libc_Cortex-M4_nofpu.a(doprntx.o)
                0x00042230                _doprntx
 .text          0x00042648        0xc E:/Debug-Matrix/branches/ME30国内PCI认证/ME30_Matrix/Mpos_Demo_20141017_ADDV2/Mpos_Demo/libs/libc_Cortex-M4_nofpu.a(memchr.o)
                0x00042648                memchr
 *(.text.*)
 .text.default_fn
                0x00042654        0x4 E:/Debug-Matrix/branches/ME30国内PCI认证/ME30_Matrix/Mpos_Demo_20141017_ADDV2/Mpos_Demo/configs/ME30/NDK_Sysdep_ME30.o
                0x00042654                default_fn
                0x00042654                appmod_export
                0x00042654                appmod_init
 .text.module_init
                0x00042658       0x10 E:/Debug-Matrix/branches/ME30国内PCI认证/ME30_Matrix/Mpos_Demo_20141017_ADDV2/Mpos_Demo/configs/ME30/NDK_Sysdep_ME30.o
                0x00042658                module_init
 .text.NDK_ScrInitGui
                0x00042668        0x4 E:/Debug-Matrix/branches/ME30国内PCI认证/ME30_Matrix/Mpos_Demo_20141017_ADDV2/Mpos_Demo/configs/ME30/NDK_Sysdep_ME30.o
                0x00042668                NDK_ScrInitGui
 .text.NDK_ScrGotoxy
                0x0004266c       0x10 E:/Debug-Matrix/branches/ME30国内PCI认证/ME30_Matrix/Mpos_Demo_20141017_ADDV2/Mpos_Demo/configs/ME30/NDK_Sysdep_ME30.o
                0x0004266c                NDK_ScrGotoxy
 .text.NDK_ScrGetxy
                0x0004267c       0x10 E:/Debug-Matrix/branches/ME30国内PCI认证/ME30_Matrix/Mpos_Demo_20141017_ADDV2/Mpos_Demo/configs/ME30/NDK_Sysdep_ME30.o
                0x0004267c                NDK_ScrGetxy
 .text.NDK_ScrBackLight
                0x0004268c       0x10 E:/Debug-Matrix/branches/ME30国内PCI认证/ME30_Matrix/Mpos_Demo_20141017_ADDV2/Mpos_Demo/configs/ME30/NDK_Sysdep_ME30.o
                0x0004268c                NDK_ScrBackLight
 .text.NDK_ScrSetAttr
                0x0004269c       0x10 E:/Debug-Matrix/branches/ME30国内PCI认证/ME30_Matrix/Mpos_Demo_20141017_ADDV2/Mpos_Demo/configs/ME30/NDK_Sysdep_ME30.o
                0x0004269c                NDK_ScrSetAttr
 .text.NDK_ScrPush
                0x000426ac       0x10 E:/Debug-Matrix/branches/ME30国内PCI认证/ME30_Matrix/Mpos_Demo_20141017_ADDV2/Mpos_Demo/configs/ME30/NDK_Sysdep_ME30.o
                0x000426ac                NDK_ScrPush
 .text.NDK_ScrPop
                0x000426bc       0x10 E:/Debug-Matrix/branches/ME30国内PCI认证/ME30_Matrix/Mpos_Demo_20141017_ADDV2/Mpos_Demo/configs/ME30/NDK_Sysdep_ME30.o
                0x000426bc                NDK_ScrPop
 .text.NDK_ScrDispString
                0x000426cc       0x10 E:/Debug-Matrix/branches/ME30国内PCI认证/ME30_Matrix/Mpos_Demo_20141017_ADDV2/Mpos_Demo/configs/ME30/NDK_Sysdep_ME30.o
                0x000426cc                NDK_ScrDispString
 .text.NDK_ScrGetPixel
                0x000426dc       0x10 E:/Debug-Matrix/branches/ME30国内PCI认证/ME30_Matrix/Mpos_Demo_20141017_ADDV2/Mpos_Demo/configs/ME30/NDK_Sysdep_ME30.o
                0x000426dc                NDK_ScrGetPixel
 .text.NDK_ScrPutPixel
                0x000426ec       0x10 E:/Debug-Matrix/branches/ME30国内PCI认证/ME30_Matrix/Mpos_Demo_20141017_ADDV2/Mpos_Demo/configs/ME30/NDK_Sysdep_ME30.o
                0x000426ec                NDK_ScrPutPixel
 .text.NDK_ScrLine
                0x000426fc       0x14 E:/Debug-Matrix/branches/ME30国内PCI认证/ME30_Matrix/Mpos_Demo_20141017_ADDV2/Mpos_Demo/configs/ME30/NDK_Sysdep_ME30.o
                0x000426fc                NDK_ScrLine
 .text.NDK_ScrRectangle
                0x00042710       0x1c E:/Debug-Matrix/branches/ME30国内PCI认证/ME30_Matrix/Mpos_Demo_20141017_ADDV2/Mpos_Demo/configs/ME30/NDK_Sysdep_ME30.o
                0x00042710                NDK_ScrRectangle
 .text.NDK_ScrClrLine
                0x0004272c       0x10 E:/Debug-Matrix/branches/ME30国内PCI认证/ME30_Matrix/Mpos_Demo_20141017_ADDV2/Mpos_Demo/configs/ME30/NDK_Sysdep_ME30.o
                0x0004272c                NDK_ScrClrLine
 .text.NDK_ScrDrawBitmap
                0x0004273c       0x14 E:/Debug-Matrix/branches/ME30国内PCI认证/ME30_Matrix/Mpos_Demo_20141017_ADDV2/Mpos_Demo/configs/ME30/NDK_Sysdep_ME30.o
                0x0004273c                NDK_ScrDrawBitmap
 .text.NDK_ScrSetContrast
                0x00042750       0x10 E:/Debug-Matrix/branches/ME30国内PCI认证/ME30_Matrix/Mpos_Demo_20141017_ADDV2/Mpos_Demo/configs/ME30/NDK_Sysdep_ME30.o
                0x00042750                NDK_ScrSetContrast
 .text.NDK_ScrGetLcdSize
                0x00042760       0x10 E:/Debug-Matrix/branches/ME30国内PCI认证/ME30_Matrix/Mpos_Demo_20141017_ADDV2/Mpos_Demo/configs/ME30/NDK_Sysdep_ME30.o
                0x00042760                NDK_ScrGetLcdSize
 .text.NDK_ScrClrs
                0x00042770       0x10 E:/Debug-Matrix/branches/ME30国内PCI认证/ME30_Matrix/Mpos_Demo_20141017_ADDV2/Mpos_Demo/configs/ME30/NDK_Sysdep_ME30.o
                0x00042770                NDK_ScrClrs
 .text.NDK_ScrGetFontSize
                0x00042780       0x10 E:/Debug-Matrix/branches/ME30国内PCI认证/ME30_Matrix/Mpos_Demo_20141017_ADDV2/Mpos_Demo/configs/ME30/NDK_Sysdep_ME30.o
                0x00042780                NDK_ScrGetFontSize
 .text.NDK_ScrDispPic
                0x00042790       0x18 E:/Debug-Matrix/branches/ME30国内PCI认证/ME30_Matrix/Mpos_Demo_20141017_ADDV2/Mpos_Demo/configs/ME30/NDK_Sysdep_ME30.o
                0x00042790                NDK_ScrDispPic
 .text.NDK_ScrPrintf
                0x000427a8       0x48 E:/Debug-Matrix/branches/ME30国内PCI认证/ME30_Matrix/Mpos_Demo_20141017_ADDV2/Mpos_Demo/configs/ME30/NDK_Sysdep_ME30.o
                0x000427a8                NDK_ScrPrintf
 .text.NDK_KbHit
                0x000427f0       0x10 E:/Debug-Matrix/branches/ME30国内PCI认证/ME30_Matrix/Mpos_Demo_20141017_ADDV2/Mpos_Demo/configs/ME30/NDK_Sysdep_ME30.o
                0x000427f0                NDK_KbHit
 .text.NDK_KbFlush
                0x00042800       0x10 E:/Debug-Matrix/branches/ME30国内PCI认证/ME30_Matrix/Mpos_Demo_20141017_ADDV2/Mpos_Demo/configs/ME30/NDK_Sysdep_ME30.o
                0x00042800                NDK_KbFlush
 .text.NDK_KbGetCode
                0x00042810       0x10 E:/Debug-Matrix/branches/ME30国内PCI认证/ME30_Matrix/Mpos_Demo_20141017_ADDV2/Mpos_Demo/configs/ME30/NDK_Sysdep_ME30.o
                0x00042810                NDK_KbGetCode
 .text.NDK_KbGetInput
                0x00042820       0x24 E:/Debug-Matrix/branches/ME30国内PCI认证/ME30_Matrix/Mpos_Demo_20141017_ADDV2/Mpos_Demo/configs/ME30/NDK_Sysdep_ME30.o
                0x00042820                NDK_KbGetInput
 .text.NDK_KbScanCode
                0x00042844       0x14 E:/Debug-Matrix/branches/ME30国内PCI认证/ME30_Matrix/Mpos_Demo_20141017_ADDV2/Mpos_Demo/configs/ME30/NDK_Sysdep_ME30.o
                0x00042844                NDK_KbScanCode
 .text.NDK_PortOpen
                0x00042858       0x10 E:/Debug-Matrix/branches/ME30国内PCI认证/ME30_Matrix/Mpos_Demo_20141017_ADDV2/Mpos_Demo/configs/ME30/NDK_Sysdep_ME30.o
                0x00042858                NDK_PortOpen
 .text.NDK_PortClose
                0x00042868       0x10 E:/Debug-Matrix/branches/ME30国内PCI认证/ME30_Matrix/Mpos_Demo_20141017_ADDV2/Mpos_Demo/configs/ME30/NDK_Sysdep_ME30.o
                0x00042868                NDK_PortClose
 .text.NDK_PortRead
                0x00042878       0x14 E:/Debug-Matrix/branches/ME30国内PCI认证/ME30_Matrix/Mpos_Demo_20141017_ADDV2/Mpos_Demo/configs/ME30/NDK_Sysdep_ME30.o
                0x00042878                NDK_PortRead
 .text.NDK_PortWrite
                0x0004288c       0x14 E:/Debug-Matrix/branches/ME30国内PCI认证/ME30_Matrix/Mpos_Demo_20141017_ADDV2/Mpos_Demo/configs/ME30/NDK_Sysdep_ME30.o
                0x0004288c                NDK_PortWrite
 .text.NDK_PortTxSendOver
                0x000428a0       0x14 E:/Debug-Matrix/branches/ME30国内PCI认证/ME30_Matrix/Mpos_Demo_20141017_ADDV2/Mpos_Demo/configs/ME30/NDK_Sysdep_ME30.o
                0x000428a0                NDK_PortTxSendOver
 .text.NDK_PortClrBuf
                0x000428b4       0x14 E:/Debug-Matrix/branches/ME30国内PCI认证/ME30_Matrix/Mpos_Demo_20141017_ADDV2/Mpos_Demo/configs/ME30/NDK_Sysdep_ME30.o
                0x000428b4                NDK_PortClrBuf
 .text.NDK_PortReadLen
                0x000428c8       0x14 E:/Debug-Matrix/branches/ME30国内PCI认证/ME30_Matrix/Mpos_Demo_20141017_ADDV2/Mpos_Demo/configs/ME30/NDK_Sysdep_ME30.o
                0x000428c8                NDK_PortReadLen
 .text.NDK_IccGetVersion
                0x000428dc       0x14 E:/Debug-Matrix/branches/ME30国内PCI认证/ME30_Matrix/Mpos_Demo_20141017_ADDV2/Mpos_Demo/configs/ME30/NDK_Sysdep_ME30.o
                0x000428dc                NDK_IccGetVersion
 .text.NDK_IccDetect
                0x000428f0       0x14 E:/Debug-Matrix/branches/ME30国内PCI认证/ME30_Matrix/Mpos_Demo_20141017_ADDV2/Mpos_Demo/configs/ME30/NDK_Sysdep_ME30.o
                0x000428f0                NDK_IccDetect
 .text.NDK_IccPowerUp
                0x00042904       0x14 E:/Debug-Matrix/branches/ME30国内PCI认证/ME30_Matrix/Mpos_Demo_20141017_ADDV2/Mpos_Demo/configs/ME30/NDK_Sysdep_ME30.o
                0x00042904                NDK_IccPowerUp
 .text.NDK_IccPowerDown
                0x00042918       0x14 E:/Debug-Matrix/branches/ME30国内PCI认证/ME30_Matrix/Mpos_Demo_20141017_ADDV2/Mpos_Demo/configs/ME30/NDK_Sysdep_ME30.o
                0x00042918                NDK_IccPowerDown
 .text.NDK_Iccrw
                0x0004292c       0x18 E:/Debug-Matrix/branches/ME30国内PCI认证/ME30_Matrix/Mpos_Demo_20141017_ADDV2/Mpos_Demo/configs/ME30/NDK_Sysdep_ME30.o
                0x0004292c                NDK_Iccrw
 .text.NDK_MagOpen
                0x00042944       0x14 E:/Debug-Matrix/branches/ME30国内PCI认证/ME30_Matrix/Mpos_Demo_20141017_ADDV2/Mpos_Demo/configs/ME30/NDK_Sysdep_ME30.o
                0x00042944                NDK_MagOpen
 .text.NDK_MagClose
                0x00042958       0x14 E:/Debug-Matrix/branches/ME30国内PCI认证/ME30_Matrix/Mpos_Demo_20141017_ADDV2/Mpos_Demo/configs/ME30/NDK_Sysdep_ME30.o
                0x00042958                NDK_MagClose
 .text.NDK_MagReset
                0x0004296c       0x14 E:/Debug-Matrix/branches/ME30国内PCI认证/ME30_Matrix/Mpos_Demo_20141017_ADDV2/Mpos_Demo/configs/ME30/NDK_Sysdep_ME30.o
                0x0004296c                NDK_MagReset
 .text.NDK_MagSwiped
                0x00042980       0x14 E:/Debug-Matrix/branches/ME30国内PCI认证/ME30_Matrix/Mpos_Demo_20141017_ADDV2/Mpos_Demo/configs/ME30/NDK_Sysdep_ME30.o
                0x00042980                NDK_MagSwiped
 .text.NDK_MagReadNormal
                0x00042994       0x14 E:/Debug-Matrix/branches/ME30国内PCI认证/ME30_Matrix/Mpos_Demo_20141017_ADDV2/Mpos_Demo/configs/ME30/NDK_Sysdep_ME30.o
                0x00042994                NDK_MagReadNormal
 .text.NDK_FsOpen
                0x000429a8       0x14 E:/Debug-Matrix/branches/ME30国内PCI认证/ME30_Matrix/Mpos_Demo_20141017_ADDV2/Mpos_Demo/configs/ME30/NDK_Sysdep_ME30.o
                0x000429a8                NDK_FsOpen
 .text.NDK_FsClose
                0x000429bc       0x14 E:/Debug-Matrix/branches/ME30国内PCI认证/ME30_Matrix/Mpos_Demo_20141017_ADDV2/Mpos_Demo/configs/ME30/NDK_Sysdep_ME30.o
                0x000429bc                NDK_FsClose
 .text.NDK_FsRead
                0x000429d0       0x14 E:/Debug-Matrix/branches/ME30国内PCI认证/ME30_Matrix/Mpos_Demo_20141017_ADDV2/Mpos_Demo/configs/ME30/NDK_Sysdep_ME30.o
                0x000429d0                NDK_FsRead
 .text.NDK_FsWrite
                0x000429e4       0x14 E:/Debug-Matrix/branches/ME30国内PCI认证/ME30_Matrix/Mpos_Demo_20141017_ADDV2/Mpos_Demo/configs/ME30/NDK_Sysdep_ME30.o
                0x000429e4                NDK_FsWrite
 .text.NDK_FsSeek
                0x000429f8       0x14 E:/Debug-Matrix/branches/ME30国内PCI认证/ME30_Matrix/Mpos_Demo_20141017_ADDV2/Mpos_Demo/configs/ME30/NDK_Sysdep_ME30.o
                0x000429f8                NDK_FsSeek
 .text.NDK_FsDel
                0x00042a0c       0x14 E:/Debug-Matrix/branches/ME30国内PCI认证/ME30_Matrix/Mpos_Demo_20141017_ADDV2/Mpos_Demo/configs/ME30/NDK_Sysdep_ME30.o
                0x00042a0c                NDK_FsDel
 .text.NDK_FsFileSize
                0x00042a20       0x14 E:/Debug-Matrix/branches/ME30国内PCI认证/ME30_Matrix/Mpos_Demo_20141017_ADDV2/Mpos_Demo/configs/ME30/NDK_Sysdep_ME30.o
                0x00042a20                NDK_FsFileSize
 .text.NDK_FsExist
                0x00042a34       0x14 E:/Debug-Matrix/branches/ME30国内PCI认证/ME30_Matrix/Mpos_Demo_20141017_ADDV2/Mpos_Demo/configs/ME30/NDK_Sysdep_ME30.o
                0x00042a34                NDK_FsExist
 .text.NDK_FsTruncate
                0x00042a48       0x14 E:/Debug-Matrix/branches/ME30国内PCI认证/ME30_Matrix/Mpos_Demo_20141017_ADDV2/Mpos_Demo/configs/ME30/NDK_Sysdep_ME30.o
                0x00042a48                NDK_FsTruncate
 .text.NDK_FsTell
                0x00042a5c       0x14 E:/Debug-Matrix/branches/ME30国内PCI认证/ME30_Matrix/Mpos_Demo_20141017_ADDV2/Mpos_Demo/configs/ME30/NDK_Sysdep_ME30.o
                0x00042a5c                NDK_FsTell
 .text.NDK_FsRename
                0x00042a70       0x14 E:/Debug-Matrix/branches/ME30国内PCI认证/ME30_Matrix/Mpos_Demo_20141017_ADDV2/Mpos_Demo/configs/ME30/NDK_Sysdep_ME30.o
                0x00042a70                NDK_FsRename
 .text.NDK_FsFormat
                0x00042a84       0x14 E:/Debug-Matrix/branches/ME30国内PCI认证/ME30_Matrix/Mpos_Demo_20141017_ADDV2/Mpos_Demo/configs/ME30/NDK_Sysdep_ME30.o
                0x00042a84                NDK_FsFormat
 .text.NDK_Getlibver
                0x00042a98       0x14 E:/Debug-Matrix/branches/ME30国内PCI认证/ME30_Matrix/Mpos_Demo_20141017_ADDV2/Mpos_Demo/configs/ME30/NDK_Sysdep_ME30.o
                0x00042a98                NDK_Getlibver
 .text.NDK_SysDelay
                0x00042aac       0x14 E:/Debug-Matrix/branches/ME30国内PCI认证/ME30_Matrix/Mpos_Demo_20141017_ADDV2/Mpos_Demo/configs/ME30/NDK_Sysdep_ME30.o
                0x00042aac                NDK_SysDelay
 .text.NDK_SysMsDelay
                0x00042ac0       0x14 E:/Debug-Matrix/branches/ME30国内PCI认证/ME30_Matrix/Mpos_Demo_20141017_ADDV2/Mpos_Demo/configs/ME30/NDK_Sysdep_ME30.o
                0x00042ac0                NDK_SysMsDelay
 .text.NDK_SysReboot
                0x00042ad4       0x14 E:/Debug-Matrix/branches/ME30国内PCI认证/ME30_Matrix/Mpos_Demo_20141017_ADDV2/Mpos_Demo/configs/ME30/NDK_Sysdep_ME30.o
                0x00042ad4                NDK_SysReboot
 .text.NDK_SysShutDown
                0x00042ae8       0x14 E:/Debug-Matrix/branches/ME30国内PCI认证/ME30_Matrix/Mpos_Demo_20141017_ADDV2/Mpos_Demo/configs/ME30/NDK_Sysdep_ME30.o
                0x00042ae8                NDK_SysShutDown
 .text.NDK_SysBeep
                0x00042afc       0x14 E:/Debug-Matrix/branches/ME30国内PCI认证/ME30_Matrix/Mpos_Demo_20141017_ADDV2/Mpos_Demo/configs/ME30/NDK_Sysdep_ME30.o
                0x00042afc                NDK_SysBeep
 .text.NDK_SysGoSuspend
                0x00042b10       0x14 E:/Debug-Matrix/branches/ME30国内PCI认证/ME30_Matrix/Mpos_Demo_20141017_ADDV2/Mpos_Demo/configs/ME30/NDK_Sysdep_ME30.o
                0x00042b10                NDK_SysGoSuspend
 .text.NDK_SysGetPowerVol
                0x00042b24       0x14 E:/Debug-Matrix/branches/ME30国内PCI认证/ME30_Matrix/Mpos_Demo_20141017_ADDV2/Mpos_Demo/configs/ME30/NDK_Sysdep_ME30.o
                0x00042b24                NDK_SysGetPowerVol
 .text.NDK_SysSetPosTime
                0x00042b38       0x34 E:/Debug-Matrix/branches/ME30国内PCI认证/ME30_Matrix/Mpos_Demo_20141017_ADDV2/Mpos_Demo/configs/ME30/NDK_Sysdep_ME30.o
                0x00042b38                NDK_SysSetPosTime
 .text.NDK_SysGetPosTime
                0x00042b6c       0x14 E:/Debug-Matrix/branches/ME30国内PCI认证/ME30_Matrix/Mpos_Demo_20141017_ADDV2/Mpos_Demo/configs/ME30/NDK_Sysdep_ME30.o
                0x00042b6c                NDK_SysGetPosTime
 .text.NDK_LedStatus
                0x00042b80       0x14 E:/Debug-Matrix/branches/ME30国内PCI认证/ME30_Matrix/Mpos_Demo_20141017_ADDV2/Mpos_Demo/configs/ME30/NDK_Sysdep_ME30.o
                0x00042b80                NDK_LedStatus
 .text.NDK_SysStartWatch
                0x00042b94       0x14 E:/Debug-Matrix/branches/ME30国内PCI认证/ME30_Matrix/Mpos_Demo_20141017_ADDV2/Mpos_Demo/configs/ME30/NDK_Sysdep_ME30.o
                0x00042b94                NDK_SysStartWatch
 .text.NDK_SysReadWatch
                0x00042ba8       0x14 E:/Debug-Matrix/branches/ME30国内PCI认证/ME30_Matrix/Mpos_Demo_20141017_ADDV2/Mpos_Demo/configs/ME30/NDK_Sysdep_ME30.o
                0x00042ba8                NDK_SysReadWatch
 .text.NDK_SysStopWatch
                0x00042bbc       0x14 E:/Debug-Matrix/branches/ME30国内PCI认证/ME30_Matrix/Mpos_Demo_20141017_ADDV2/Mpos_Demo/configs/ME30/NDK_Sysdep_ME30.o
                0x00042bbc                NDK_SysStopWatch
 .text.NDK_SysTimeBeep
                0x00042bd0       0x14 E:/Debug-Matrix/branches/ME30国内PCI认证/ME30_Matrix/Mpos_Demo_20141017_ADDV2/Mpos_Demo/configs/ME30/NDK_Sysdep_ME30.o
                0x00042bd0                NDK_SysTimeBeep
 .text.NDK_SysGetConfigInfo
                0x00042be4       0x14 E:/Debug-Matrix/branches/ME30国内PCI认证/ME30_Matrix/Mpos_Demo_20141017_ADDV2/Mpos_Demo/configs/ME30/NDK_Sysdep_ME30.o
                0x00042be4                NDK_SysGetConfigInfo
 .text.NDK_SysGetPosInfo
                0x00042bf8       0x14 E:/Debug-Matrix/branches/ME30国内PCI认证/ME30_Matrix/Mpos_Demo_20141017_ADDV2/Mpos_Demo/configs/ME30/NDK_Sysdep_ME30.o
                0x00042bf8                NDK_SysGetPosInfo
 .text.NDK_SysGetPowerVolRange
                0x00042c0c       0x14 E:/Debug-Matrix/branches/ME30国内PCI认证/ME30_Matrix/Mpos_Demo_20141017_ADDV2/Mpos_Demo/configs/ME30/NDK_Sysdep_ME30.o
                0x00042c0c                NDK_SysGetPowerVolRange
 .text.NDK_SysSetPosInfo
                0x00042c20       0x14 E:/Debug-Matrix/branches/ME30国内PCI认证/ME30_Matrix/Mpos_Demo_20141017_ADDV2/Mpos_Demo/configs/ME30/NDK_Sysdep_ME30.o
                0x00042c20                NDK_SysSetPosInfo
 .text.NDK_SysSetShutdownDelay
                0x00042c34       0x14 E:/Debug-Matrix/branches/ME30国内PCI认证/ME30_Matrix/Mpos_Demo_20141017_ADDV2/Mpos_Demo/configs/ME30/NDK_Sysdep_ME30.o
                0x00042c34                NDK_SysSetShutdownDelay
 .text.NDK_AppRun
                0x00042c48       0x14 E:/Debug-Matrix/branches/ME30国内PCI认证/ME30_Matrix/Mpos_Demo_20141017_ADDV2/Mpos_Demo/configs/ME30/NDK_Sysdep_ME30.o
                0x00042c48                NDK_AppRun
 .text.NDK_LibLoad
                0x00042c5c       0x14 E:/Debug-Matrix/branches/ME30国内PCI认证/ME30_Matrix/Mpos_Demo_20141017_ADDV2/Mpos_Demo/configs/ME30/NDK_Sysdep_ME30.o
                0x00042c5c                NDK_LibLoad
 .text.NDK_AppLoad
                0x00042c70       0x14 E:/Debug-Matrix/branches/ME30国内PCI认证/ME30_Matrix/Mpos_Demo_20141017_ADDV2/Mpos_Demo/configs/ME30/NDK_Sysdep_ME30.o
                0x00042c70                NDK_AppLoad
 .text.NDK_AddDigitStr
                0x00042c84       0x14 E:/Debug-Matrix/branches/ME30国内PCI认证/ME30_Matrix/Mpos_Demo_20141017_ADDV2/Mpos_Demo/configs/ME30/NDK_Sysdep_ME30.o
                0x00042c84                NDK_AddDigitStr
 .text.NDK_IncNum
                0x00042c98       0x14 E:/Debug-Matrix/branches/ME30国内PCI认证/ME30_Matrix/Mpos_Demo_20141017_ADDV2/Mpos_Demo/configs/ME30/NDK_Sysdep_ME30.o
                0x00042c98                NDK_IncNum
 .text.NDK_FmtAmtStr
                0x00042cac       0x14 E:/Debug-Matrix/branches/ME30国内PCI认证/ME30_Matrix/Mpos_Demo_20141017_ADDV2/Mpos_Demo/configs/ME30/NDK_Sysdep_ME30.o
                0x00042cac                NDK_FmtAmtStr
 .text.NDK_AscToHex
                0x00042cc0       0x14 E:/Debug-Matrix/branches/ME30国内PCI认证/ME30_Matrix/Mpos_Demo_20141017_ADDV2/Mpos_Demo/configs/ME30/NDK_Sysdep_ME30.o
                0x00042cc0                NDK_AscToHex
 .text.NDK_HexToAsc
                0x00042cd4       0x14 E:/Debug-Matrix/branches/ME30国内PCI认证/ME30_Matrix/Mpos_Demo_20141017_ADDV2/Mpos_Demo/configs/ME30/NDK_Sysdep_ME30.o
                0x00042cd4                NDK_HexToAsc
 .text.NDK_IntToC4
                0x00042ce8       0x14 E:/Debug-Matrix/branches/ME30国内PCI认证/ME30_Matrix/Mpos_Demo_20141017_ADDV2/Mpos_Demo/configs/ME30/NDK_Sysdep_ME30.o
                0x00042ce8                NDK_IntToC4
 .text.NDK_IntToC2
                0x00042cfc       0x14 E:/Debug-Matrix/branches/ME30国内PCI认证/ME30_Matrix/Mpos_Demo_20141017_ADDV2/Mpos_Demo/configs/ME30/NDK_Sysdep_ME30.o
                0x00042cfc                NDK_IntToC2
 .text.NDK_C4ToInt
                0x00042d10       0x14 E:/Debug-Matrix/branches/ME30国内PCI认证/ME30_Matrix/Mpos_Demo_20141017_ADDV2/Mpos_Demo/configs/ME30/NDK_Sysdep_ME30.o
                0x00042d10                NDK_C4ToInt
 .text.NDK_C2ToInt
                0x00042d24       0x14 E:/Debug-Matrix/branches/ME30国内PCI认证/ME30_Matrix/Mpos_Demo_20141017_ADDV2/Mpos_Demo/configs/ME30/NDK_Sysdep_ME30.o
                0x00042d24                NDK_C2ToInt
 .text.NDK_ByteToBcd
                0x00042d38       0x14 E:/Debug-Matrix/branches/ME30国内PCI认证/ME30_Matrix/Mpos_Demo_20141017_ADDV2/Mpos_Demo/configs/ME30/NDK_Sysdep_ME30.o
                0x00042d38                NDK_ByteToBcd
 .text.NDK_BcdToByte
                0x00042d4c       0x14 E:/Debug-Matrix/branches/ME30国内PCI认证/ME30_Matrix/Mpos_Demo_20141017_ADDV2/Mpos_Demo/configs/ME30/NDK_Sysdep_ME30.o
                0x00042d4c                NDK_BcdToByte
 .text.NDK_IntToBcd
                0x00042d60       0x14 E:/Debug-Matrix/branches/ME30国内PCI认证/ME30_Matrix/Mpos_Demo_20141017_ADDV2/Mpos_Demo/configs/ME30/NDK_Sysdep_ME30.o
                0x00042d60                NDK_IntToBcd
 .text.NDK_BcdToInt
                0x00042d74       0x14 E:/Debug-Matrix/branches/ME30国内PCI认证/ME30_Matrix/Mpos_Demo_20141017_ADDV2/Mpos_Demo/configs/ME30/NDK_Sysdep_ME30.o
                0x00042d74                NDK_BcdToInt
 .text.NDK_CalcLRC
                0x00042d88       0x14 E:/Debug-Matrix/branches/ME30国内PCI认证/ME30_Matrix/Mpos_Demo_20141017_ADDV2/Mpos_Demo/configs/ME30/NDK_Sysdep_ME30.o
                0x00042d88                NDK_CalcLRC
 .text.NDK_LeftTrim
                0x00042d9c       0x14 E:/Debug-Matrix/branches/ME30国内PCI认证/ME30_Matrix/Mpos_Demo_20141017_ADDV2/Mpos_Demo/configs/ME30/NDK_Sysdep_ME30.o
                0x00042d9c                NDK_LeftTrim
 .text.NDK_RightTrim
                0x00042db0       0x14 E:/Debug-Matrix/branches/ME30国内PCI认证/ME30_Matrix/Mpos_Demo_20141017_ADDV2/Mpos_Demo/configs/ME30/NDK_Sysdep_ME30.o
                0x00042db0                NDK_RightTrim
 .text.NDK_AllTrim
                0x00042dc4       0x14 E:/Debug-Matrix/branches/ME30国内PCI认证/ME30_Matrix/Mpos_Demo_20141017_ADDV2/Mpos_Demo/configs/ME30/NDK_Sysdep_ME30.o
                0x00042dc4                NDK_AllTrim
 .text.NDK_AddSymbolToStr
                0x00042dd8       0x14 E:/Debug-Matrix/branches/ME30国内PCI认证/ME30_Matrix/Mpos_Demo_20141017_ADDV2/Mpos_Demo/configs/ME30/NDK_Sysdep_ME30.o
                0x00042dd8                NDK_AddSymbolToStr
 .text.NDK_SubStr
                0x00042dec       0x18 E:/Debug-Matrix/branches/ME30国内PCI认证/ME30_Matrix/Mpos_Demo_20141017_ADDV2/Mpos_Demo/configs/ME30/NDK_Sysdep_ME30.o
                0x00042dec                NDK_SubStr
 .text.NDK_IsDigitChar
                0x00042e04       0x14 E:/Debug-Matrix/branches/ME30国内PCI认证/ME30_Matrix/Mpos_Demo_20141017_ADDV2/Mpos_Demo/configs/ME30/NDK_Sysdep_ME30.o
                0x00042e04                NDK_IsDigitChar
 .text.NDK_IsDigitStr
                0x00042e18       0x14 E:/Debug-Matrix/branches/ME30国内PCI认证/ME30_Matrix/Mpos_Demo_20141017_ADDV2/Mpos_Demo/configs/ME30/NDK_Sysdep_ME30.o
                0x00042e18                NDK_IsDigitStr
 .text.NDK_IsLeapYear
                0x00042e2c       0x14 E:/Debug-Matrix/branches/ME30国内PCI认证/ME30_Matrix/Mpos_Demo_20141017_ADDV2/Mpos_Demo/configs/ME30/NDK_Sysdep_ME30.o
                0x00042e2c                NDK_IsLeapYear
 .text.NDK_MonthDays
                0x00042e40       0x14 E:/Debug-Matrix/branches/ME30国内PCI认证/ME30_Matrix/Mpos_Demo_20141017_ADDV2/Mpos_Demo/configs/ME30/NDK_Sysdep_ME30.o
                0x00042e40                NDK_MonthDays
 .text.NDK_IsValidDate
                0x00042e54       0x14 E:/Debug-Matrix/branches/ME30国内PCI认证/ME30_Matrix/Mpos_Demo_20141017_ADDV2/Mpos_Demo/configs/ME30/NDK_Sysdep_ME30.o
                0x00042e54                NDK_IsValidDate
 .text.NDK_BTReset
                0x00042e68       0x14 E:/Debug-Matrix/branches/ME30国内PCI认证/ME30_Matrix/Mpos_Demo_20141017_ADDV2/Mpos_Demo/configs/ME30/NDK_Sysdep_ME30.o
                0x00042e68                NDK_BTReset
 .text.NDK_BTGetLocalName
                0x00042e7c       0x14 E:/Debug-Matrix/branches/ME30国内PCI认证/ME30_Matrix/Mpos_Demo_20141017_ADDV2/Mpos_Demo/configs/ME30/NDK_Sysdep_ME30.o
                0x00042e7c                NDK_BTGetLocalName
 .text.NDK_BTEnterCommand
                0x00042e90       0x14 E:/Debug-Matrix/branches/ME30国内PCI认证/ME30_Matrix/Mpos_Demo_20141017_ADDV2/Mpos_Demo/configs/ME30/NDK_Sysdep_ME30.o
                0x00042e90                NDK_BTEnterCommand
 .text.NDK_BTExitCommand
                0x00042ea4       0x14 E:/Debug-Matrix/branches/ME30国内PCI认证/ME30_Matrix/Mpos_Demo_20141017_ADDV2/Mpos_Demo/configs/ME30/NDK_Sysdep_ME30.o
                0x00042ea4                NDK_BTExitCommand
 .text.NDK_BTGetLocalMAC
                0x00042eb8       0x14 E:/Debug-Matrix/branches/ME30国内PCI认证/ME30_Matrix/Mpos_Demo_20141017_ADDV2/Mpos_Demo/configs/ME30/NDK_Sysdep_ME30.o
                0x00042eb8                NDK_BTGetLocalMAC
 .text.NDK_BTGetPIN
                0x00042ecc       0x14 E:/Debug-Matrix/branches/ME30国内PCI认证/ME30_Matrix/Mpos_Demo_20141017_ADDV2/Mpos_Demo/configs/ME30/NDK_Sysdep_ME30.o
                0x00042ecc                NDK_BTGetPIN
 .text.NDK_BTSetLocalName
                0x00042ee0       0x14 E:/Debug-Matrix/branches/ME30国内PCI认证/ME30_Matrix/Mpos_Demo_20141017_ADDV2/Mpos_Demo/configs/ME30/NDK_Sysdep_ME30.o
                0x00042ee0                NDK_BTSetLocalName
 .text.NDK_BTSetPIN
                0x00042ef4       0x14 E:/Debug-Matrix/branches/ME30国内PCI认证/ME30_Matrix/Mpos_Demo_20141017_ADDV2/Mpos_Demo/configs/ME30/NDK_Sysdep_ME30.o
                0x00042ef4                NDK_BTSetPIN
 .text.NDK_BTStatus
                0x00042f08       0x14 E:/Debug-Matrix/branches/ME30国内PCI认证/ME30_Matrix/Mpos_Demo_20141017_ADDV2/Mpos_Demo/configs/ME30/NDK_Sysdep_ME30.o
                0x00042f08                NDK_BTStatus
 .text.NDK_BTDisconnect
                0x00042f1c       0x14 E:/Debug-Matrix/branches/ME30国内PCI认证/ME30_Matrix/Mpos_Demo_20141017_ADDV2/Mpos_Demo/configs/ME30/NDK_Sysdep_ME30.o
                0x00042f1c                NDK_BTDisconnect
 .text.open     0x00042f30       0x1c E:/Debug-Matrix/branches/ME30国内PCI认证/ME30_Matrix/Mpos_Demo_20141017_ADDV2/Mpos_Demo/configs/ME30/NDK_Sysdep_ME30.o
                0x00042f30                open
 .text.close    0x00042f4c       0x10 E:/Debug-Matrix/branches/ME30国内PCI认证/ME30_Matrix/Mpos_Demo_20141017_ADDV2/Mpos_Demo/configs/ME30/NDK_Sysdep_ME30.o
                0x00042f4c                close
 .text.read     0x00042f5c       0x10 E:/Debug-Matrix/branches/ME30国内PCI认证/ME30_Matrix/Mpos_Demo_20141017_ADDV2/Mpos_Demo/configs/ME30/NDK_Sysdep_ME30.o
                0x00042f5c                read
 .text.write    0x00042f6c       0x10 E:/Debug-Matrix/branches/ME30国内PCI认证/ME30_Matrix/Mpos_Demo_20141017_ADDV2/Mpos_Demo/configs/ME30/NDK_Sysdep_ME30.o
                0x00042f6c                write
 .text.select   0x00042f7c       0x14 E:/Debug-Matrix/branches/ME30国内PCI认证/ME30_Matrix/Mpos_Demo_20141017_ADDV2/Mpos_Demo/configs/ME30/NDK_Sysdep_ME30.o
                0x00042f7c                select
 .text.unlink   0x00042f90       0x10 E:/Debug-Matrix/branches/ME30国内PCI认证/ME30_Matrix/Mpos_Demo_20141017_ADDV2/Mpos_Demo/configs/ME30/NDK_Sysdep_ME30.o
                0x00042f90                unlink
 .text.ioctl    0x00042fa0       0x10 E:/Debug-Matrix/branches/ME30国内PCI认证/ME30_Matrix/Mpos_Demo_20141017_ADDV2/Mpos_Demo/configs/ME30/NDK_Sysdep_ME30.o
                0x00042fa0                ioctl
 .text.lseek    0x00042fb0       0x10 E:/Debug-Matrix/branches/ME30国内PCI认证/ME30_Matrix/Mpos_Demo_20141017_ADDV2/Mpos_Demo/configs/ME30/NDK_Sysdep_ME30.o
                0x00042fb0                lseek
 .text.NDK_RfidVersion
                0x00042fc0       0x14 E:/Debug-Matrix/branches/ME30国内PCI认证/ME30_Matrix/Mpos_Demo_20141017_ADDV2/Mpos_Demo/configs/ME30/NDK_Sysdep_ME30.o
                0x00042fc0                NDK_RfidVersion
 .text.NDK_RfidInit
                0x00042fd4       0x14 E:/Debug-Matrix/branches/ME30国内PCI认证/ME30_Matrix/Mpos_Demo_20141017_ADDV2/Mpos_Demo/configs/ME30/NDK_Sysdep_ME30.o
                0x00042fd4                NDK_RfidInit
 .text.NDK_RfidOpenRf
                0x00042fe8       0x14 E:/Debug-Matrix/branches/ME30国内PCI认证/ME30_Matrix/Mpos_Demo_20141017_ADDV2/Mpos_Demo/configs/ME30/NDK_Sysdep_ME30.o
                0x00042fe8                NDK_RfidOpenRf
 .text.NDK_RfidCloseRf
                0x00042ffc       0x14 E:/Debug-Matrix/branches/ME30国内PCI认证/ME30_Matrix/Mpos_Demo_20141017_ADDV2/Mpos_Demo/configs/ME30/NDK_Sysdep_ME30.o
                0x00042ffc                NDK_RfidCloseRf
 .text.NDK_RfidPiccState
                0x00043010       0x14 E:/Debug-Matrix/branches/ME30国内PCI认证/ME30_Matrix/Mpos_Demo_20141017_ADDV2/Mpos_Demo/configs/ME30/NDK_Sysdep_ME30.o
                0x00043010                NDK_RfidPiccState
 .text.NDK_RfidSuspend
                0x00043024       0x14 E:/Debug-Matrix/branches/ME30国内PCI认证/ME30_Matrix/Mpos_Demo_20141017_ADDV2/Mpos_Demo/configs/ME30/NDK_Sysdep_ME30.o
                0x00043024                NDK_RfidSuspend
 .text.NDK_RfidResume
                0x00043038       0x14 E:/Debug-Matrix/branches/ME30国内PCI认证/ME30_Matrix/Mpos_Demo_20141017_ADDV2/Mpos_Demo/configs/ME30/NDK_Sysdep_ME30.o
                0x00043038                NDK_RfidResume
 .text.NDK_RfidPiccType
                0x0004304c       0x14 E:/Debug-Matrix/branches/ME30国内PCI认证/ME30_Matrix/Mpos_Demo_20141017_ADDV2/Mpos_Demo/configs/ME30/NDK_Sysdep_ME30.o
                0x0004304c                NDK_RfidPiccType
 .text.NDK_RfidPiccDetect
                0x00043060       0x14 E:/Debug-Matrix/branches/ME30国内PCI认证/ME30_Matrix/Mpos_Demo_20141017_ADDV2/Mpos_Demo/configs/ME30/NDK_Sysdep_ME30.o
                0x00043060                NDK_RfidPiccDetect
 .text.NDK_RfidPiccActivate
                0x00043074       0x14 E:/Debug-Matrix/branches/ME30国内PCI认证/ME30_Matrix/Mpos_Demo_20141017_ADDV2/Mpos_Demo/configs/ME30/NDK_Sysdep_ME30.o
                0x00043074                NDK_RfidPiccActivate
 .text.NDK_RfidPiccDeactivate
                0x00043088       0x14 E:/Debug-Matrix/branches/ME30国内PCI认证/ME30_Matrix/Mpos_Demo_20141017_ADDV2/Mpos_Demo/configs/ME30/NDK_Sysdep_ME30.o
                0x00043088                NDK_RfidPiccDeactivate
 .text.NDK_RfidPiccApdu
                0x0004309c       0x14 E:/Debug-Matrix/branches/ME30国内PCI认证/ME30_Matrix/Mpos_Demo_20141017_ADDV2/Mpos_Demo/configs/ME30/NDK_Sysdep_ME30.o
                0x0004309c                NDK_RfidPiccApdu
 .text.NDK_M1Request
                0x000430b0       0x14 E:/Debug-Matrix/branches/ME30国内PCI认证/ME30_Matrix/Mpos_Demo_20141017_ADDV2/Mpos_Demo/configs/ME30/NDK_Sysdep_ME30.o
                0x000430b0                NDK_M1Request
 .text.NDK_M1Anti
                0x000430c4       0x14 E:/Debug-Matrix/branches/ME30国内PCI认证/ME30_Matrix/Mpos_Demo_20141017_ADDV2/Mpos_Demo/configs/ME30/NDK_Sysdep_ME30.o
                0x000430c4                NDK_M1Anti
 .text.NDK_M1Select
                0x000430d8       0x14 E:/Debug-Matrix/branches/ME30国内PCI认证/ME30_Matrix/Mpos_Demo_20141017_ADDV2/Mpos_Demo/configs/ME30/NDK_Sysdep_ME30.o
                0x000430d8                NDK_M1Select
 .text.NDK_M1KeyStore
                0x000430ec       0x14 E:/Debug-Matrix/branches/ME30国内PCI认证/ME30_Matrix/Mpos_Demo_20141017_ADDV2/Mpos_Demo/configs/ME30/NDK_Sysdep_ME30.o
                0x000430ec                NDK_M1KeyStore
 .text.NDK_M1KeyLoad
                0x00043100       0x14 E:/Debug-Matrix/branches/ME30国内PCI认证/ME30_Matrix/Mpos_Demo_20141017_ADDV2/Mpos_Demo/configs/ME30/NDK_Sysdep_ME30.o
                0x00043100                NDK_M1KeyLoad
 .text.NDK_M1InternalAuthen
                0x00043114       0x14 E:/Debug-Matrix/branches/ME30国内PCI认证/ME30_Matrix/Mpos_Demo_20141017_ADDV2/Mpos_Demo/configs/ME30/NDK_Sysdep_ME30.o
                0x00043114                NDK_M1InternalAuthen
 .text.NDK_M1ExternalAuthen
                0x00043128       0x18 E:/Debug-Matrix/branches/ME30国内PCI认证/ME30_Matrix/Mpos_Demo_20141017_ADDV2/Mpos_Demo/configs/ME30/NDK_Sysdep_ME30.o
                0x00043128                NDK_M1ExternalAuthen
 .text.NDK_M1Read
                0x00043140       0x14 E:/Debug-Matrix/branches/ME30国内PCI认证/ME30_Matrix/Mpos_Demo_20141017_ADDV2/Mpos_Demo/configs/ME30/NDK_Sysdep_ME30.o
                0x00043140                NDK_M1Read
 .text.NDK_M1Write
                0x00043154       0x14 E:/Debug-Matrix/branches/ME30国内PCI认证/ME30_Matrix/Mpos_Demo_20141017_ADDV2/Mpos_Demo/configs/ME30/NDK_Sysdep_ME30.o
                0x00043154                NDK_M1Write
 .text.NDK_M1Increment
                0x00043168       0x14 E:/Debug-Matrix/branches/ME30国内PCI认证/ME30_Matrix/Mpos_Demo_20141017_ADDV2/Mpos_Demo/configs/ME30/NDK_Sysdep_ME30.o
                0x00043168                NDK_M1Increment
 .text.NDK_M1Decrement
                0x0004317c       0x14 E:/Debug-Matrix/branches/ME30国内PCI认证/ME30_Matrix/Mpos_Demo_20141017_ADDV2/Mpos_Demo/configs/ME30/NDK_Sysdep_ME30.o
                0x0004317c                NDK_M1Decrement
 .text.NDK_M1Transfer
                0x00043190       0x14 E:/Debug-Matrix/branches/ME30国内PCI认证/ME30_Matrix/Mpos_Demo_20141017_ADDV2/Mpos_Demo/configs/ME30/NDK_Sysdep_ME30.o
                0x00043190                NDK_M1Transfer
 .text.NDK_M1Restore
                0x000431a4       0x14 E:/Debug-Matrix/branches/ME30国内PCI认证/ME30_Matrix/Mpos_Demo_20141017_ADDV2/Mpos_Demo/configs/ME30/NDK_Sysdep_ME30.o
                0x000431a4                NDK_M1Restore
 .text.NDK_M1halt
                0x000431b8       0x14 E:/Debug-Matrix/branches/ME30国内PCI认证/ME30_Matrix/Mpos_Demo_20141017_ADDV2/Mpos_Demo/configs/ME30/NDK_Sysdep_ME30.o
                0x000431b8                NDK_M1halt
 .text.NDK_PiccQuickRequest
                0x000431cc       0x14 E:/Debug-Matrix/branches/ME30国内PCI认证/ME30_Matrix/Mpos_Demo_20141017_ADDV2/Mpos_Demo/configs/ME30/NDK_Sysdep_ME30.o
                0x000431cc                NDK_PiccQuickRequest
 .text.NDK_SetIgnoreProtocol
                0x000431e0       0x14 E:/Debug-Matrix/branches/ME30国内PCI认证/ME30_Matrix/Mpos_Demo_20141017_ADDV2/Mpos_Demo/configs/ME30/NDK_Sysdep_ME30.o
                0x000431e0                NDK_SetIgnoreProtocol
 .text.NDK_GetIgnoreProtocol
                0x000431f4       0x14 E:/Debug-Matrix/branches/ME30国内PCI认证/ME30_Matrix/Mpos_Demo_20141017_ADDV2/Mpos_Demo/configs/ME30/NDK_Sysdep_ME30.o
                0x000431f4                NDK_GetIgnoreProtocol
 .text.NDK_GetRfidType
                0x00043208       0x14 E:/Debug-Matrix/branches/ME30国内PCI认证/ME30_Matrix/Mpos_Demo_20141017_ADDV2/Mpos_Demo/configs/ME30/NDK_Sysdep_ME30.o
                0x00043208                NDK_GetRfidType
 .text.NDK_AlgTDes
                0x0004321c       0x18 E:/Debug-Matrix/branches/ME30国内PCI认证/ME30_Matrix/Mpos_Demo_20141017_ADDV2/Mpos_Demo/configs/ME30/NDK_Sysdep_ME30.o
                0x0004321c                NDK_AlgTDes
 .text.NDK_AlgSHA1
                0x00043234       0x14 E:/Debug-Matrix/branches/ME30国内PCI认证/ME30_Matrix/Mpos_Demo_20141017_ADDV2/Mpos_Demo/configs/ME30/NDK_Sysdep_ME30.o
                0x00043234                NDK_AlgSHA1
 .text.NDK_AlgSHA256
                0x00043248       0x14 E:/Debug-Matrix/branches/ME30国内PCI认证/ME30_Matrix/Mpos_Demo_20141017_ADDV2/Mpos_Demo/configs/ME30/NDK_Sysdep_ME30.o
                0x00043248                NDK_AlgSHA256
 .text.NDK_SecGetRandom
                0x0004325c       0x14 E:/Debug-Matrix/branches/ME30国内PCI认证/ME30_Matrix/Mpos_Demo_20141017_ADDV2/Mpos_Demo/configs/ME30/NDK_Sysdep_ME30.o
                0x0004325c                NDK_SecGetRandom
 .text.NDK_SecGetVer
                0x00043270       0x14 E:/Debug-Matrix/branches/ME30国内PCI认证/ME30_Matrix/Mpos_Demo_20141017_ADDV2/Mpos_Demo/configs/ME30/NDK_Sysdep_ME30.o
                0x00043270                NDK_SecGetVer
 .text.NDK_SecSetCfg
                0x00043284       0x14 E:/Debug-Matrix/branches/ME30国内PCI认证/ME30_Matrix/Mpos_Demo_20141017_ADDV2/Mpos_Demo/configs/ME30/NDK_Sysdep_ME30.o
                0x00043284                NDK_SecSetCfg
 .text.NDK_SecGetCfg
                0x00043298       0x14 E:/Debug-Matrix/branches/ME30国内PCI认证/ME30_Matrix/Mpos_Demo_20141017_ADDV2/Mpos_Demo/configs/ME30/NDK_Sysdep_ME30.o
                0x00043298                NDK_SecGetCfg
 .text.NDK_SecGetKcv
                0x000432ac       0x14 E:/Debug-Matrix/branches/ME30国内PCI认证/ME30_Matrix/Mpos_Demo_20141017_ADDV2/Mpos_Demo/configs/ME30/NDK_Sysdep_ME30.o
                0x000432ac                NDK_SecGetKcv
 .text.NDK_SecKeyErase
                0x000432c0       0x14 E:/Debug-Matrix/branches/ME30国内PCI认证/ME30_Matrix/Mpos_Demo_20141017_ADDV2/Mpos_Demo/configs/ME30/NDK_Sysdep_ME30.o
                0x000432c0                NDK_SecKeyErase
 .text.NDK_SecLoadKey
                0x000432d4       0x14 E:/Debug-Matrix/branches/ME30国内PCI认证/ME30_Matrix/Mpos_Demo_20141017_ADDV2/Mpos_Demo/configs/ME30/NDK_Sysdep_ME30.o
                0x000432d4                NDK_SecLoadKey
 .text.NDK_SecSetIntervaltime
                0x000432e8       0x14 E:/Debug-Matrix/branches/ME30国内PCI认证/ME30_Matrix/Mpos_Demo_20141017_ADDV2/Mpos_Demo/configs/ME30/NDK_Sysdep_ME30.o
                0x000432e8                NDK_SecSetIntervaltime
 .text.NDK_SecSetFunctionKey
                0x000432fc       0x14 E:/Debug-Matrix/branches/ME30国内PCI认证/ME30_Matrix/Mpos_Demo_20141017_ADDV2/Mpos_Demo/configs/ME30/NDK_Sysdep_ME30.o
                0x000432fc                NDK_SecSetFunctionKey
 .text.NDK_SecGetMac
                0x00043310       0x18 E:/Debug-Matrix/branches/ME30国内PCI认证/ME30_Matrix/Mpos_Demo_20141017_ADDV2/Mpos_Demo/configs/ME30/NDK_Sysdep_ME30.o
                0x00043310                NDK_SecGetMac
 .text.NDK_SecGetPin
                0x00043328       0x1c E:/Debug-Matrix/branches/ME30国内PCI认证/ME30_Matrix/Mpos_Demo_20141017_ADDV2/Mpos_Demo/configs/ME30/NDK_Sysdep_ME30.o
                0x00043328                NDK_SecGetPin
 .text.NDK_SecCalcDes
                0x00043344       0x1c E:/Debug-Matrix/branches/ME30国内PCI认证/ME30_Matrix/Mpos_Demo_20141017_ADDV2/Mpos_Demo/configs/ME30/NDK_Sysdep_ME30.o
                0x00043344                NDK_SecCalcDes
 .text.NDK_SecVerifyPlainPin
                0x00043360       0x18 E:/Debug-Matrix/branches/ME30国内PCI认证/ME30_Matrix/Mpos_Demo_20141017_ADDV2/Mpos_Demo/configs/ME30/NDK_Sysdep_ME30.o
                0x00043360                NDK_SecVerifyPlainPin
 .text.NDK_SecVerifyCipherPin
                0x00043378       0x1c E:/Debug-Matrix/branches/ME30国内PCI认证/ME30_Matrix/Mpos_Demo_20141017_ADDV2/Mpos_Demo/configs/ME30/NDK_Sysdep_ME30.o
                0x00043378                NDK_SecVerifyCipherPin
 .text.NDK_SecLoadTIK
                0x00043394       0x1c E:/Debug-Matrix/branches/ME30国内PCI认证/ME30_Matrix/Mpos_Demo_20141017_ADDV2/Mpos_Demo/configs/ME30/NDK_Sysdep_ME30.o
                0x00043394                NDK_SecLoadTIK
 .text.NDK_SecGetDukptKsn
                0x000433b0       0x14 E:/Debug-Matrix/branches/ME30国内PCI认证/ME30_Matrix/Mpos_Demo_20141017_ADDV2/Mpos_Demo/configs/ME30/NDK_Sysdep_ME30.o
                0x000433b0                NDK_SecGetDukptKsn
 .text.NDK_SecIncreaseDukptKsn
                0x000433c4       0x14 E:/Debug-Matrix/branches/ME30国内PCI认证/ME30_Matrix/Mpos_Demo_20141017_ADDV2/Mpos_Demo/configs/ME30/NDK_Sysdep_ME30.o
                0x000433c4                NDK_SecIncreaseDukptKsn
 .text.NDK_SecGetPinDukpt
                0x000433d8       0x24 E:/Debug-Matrix/branches/ME30国内PCI认证/ME30_Matrix/Mpos_Demo_20141017_ADDV2/Mpos_Demo/configs/ME30/NDK_Sysdep_ME30.o
                0x000433d8                NDK_SecGetPinDukpt
 .text.NDK_SecGetMacDukpt
                0x000433fc       0x1c E:/Debug-Matrix/branches/ME30国内PCI认证/ME30_Matrix/Mpos_Demo_20141017_ADDV2/Mpos_Demo/configs/ME30/NDK_Sysdep_ME30.o
                0x000433fc                NDK_SecGetMacDukpt
 .text.NDK_SecCalcDesDukpt
                0x00043418       0x28 E:/Debug-Matrix/branches/ME30国内PCI认证/ME30_Matrix/Mpos_Demo_20141017_ADDV2/Mpos_Demo/configs/ME30/NDK_Sysdep_ME30.o
                0x00043418                NDK_SecCalcDesDukpt
 .text.NDK_SecLoadRsaKey
                0x00043440       0x14 E:/Debug-Matrix/branches/ME30国内PCI认证/ME30_Matrix/Mpos_Demo_20141017_ADDV2/Mpos_Demo/configs/ME30/NDK_Sysdep_ME30.o
                0x00043440                NDK_SecLoadRsaKey
 .text.NDK_SecRecover
                0x00043454       0x14 E:/Debug-Matrix/branches/ME30国内PCI认证/ME30_Matrix/Mpos_Demo_20141017_ADDV2/Mpos_Demo/configs/ME30/NDK_Sysdep_ME30.o
                0x00043454                NDK_SecRecover
 .text.NDK_SecGetPinResult
                0x00043468       0x14 E:/Debug-Matrix/branches/ME30国内PCI认证/ME30_Matrix/Mpos_Demo_20141017_ADDV2/Mpos_Demo/configs/ME30/NDK_Sysdep_ME30.o
                0x00043468                NDK_SecGetPinResult
 .text.NDK_SecSetKeyOwner
                0x0004347c       0x14 E:/Debug-Matrix/branches/ME30国内PCI认证/ME30_Matrix/Mpos_Demo_20141017_ADDV2/Mpos_Demo/configs/ME30/NDK_Sysdep_ME30.o
                0x0004347c                NDK_SecSetKeyOwner
 .text.NDK_SecGetTamperStatus
                0x00043490       0x14 E:/Debug-Matrix/branches/ME30国内PCI认证/ME30_Matrix/Mpos_Demo_20141017_ADDV2/Mpos_Demo/configs/ME30/NDK_Sysdep_ME30.o
                0x00043490                NDK_SecGetTamperStatus
 .text.NDK_SecGetPinResultDukpt
                0x000434a4       0x14 E:/Debug-Matrix/branches/ME30国内PCI认证/ME30_Matrix/Mpos_Demo_20141017_ADDV2/Mpos_Demo/configs/ME30/NDK_Sysdep_ME30.o
                0x000434a4                NDK_SecGetPinResultDukpt
 .text.NDK_ScrDrawBitmapV
                0x000434b8       0x18 E:/Debug-Matrix/branches/ME30国内PCI认证/ME30_Matrix/Mpos_Demo_20141017_ADDV2/Mpos_Demo/configs/ME30/NDK_Sysdep_ME30.o
                0x000434b8                NDK_ScrDrawBitmapV
 .text.NDK_RegisterTimerRoutine
                0x000434d0       0x14 E:/Debug-Matrix/branches/ME30国内PCI认证/ME30_Matrix/Mpos_Demo_20141017_ADDV2/Mpos_Demo/configs/ME30/NDK_Sysdep_ME30.o
                0x000434d0                NDK_RegisterTimerRoutine
 .text.NDK_DeRegisterTimer
                0x000434e4       0x14 E:/Debug-Matrix/branches/ME30国内PCI认证/ME30_Matrix/Mpos_Demo_20141017_ADDV2/Mpos_Demo/configs/ME30/NDK_Sysdep_ME30.o
                0x000434e4                NDK_DeRegisterTimer
 .text.NDK_PrnInit
                0x000434f8       0x14 E:/Debug-Matrix/branches/ME30国内PCI认证/ME30_Matrix/Mpos_Demo_20141017_ADDV2/Mpos_Demo/configs/ME30/NDK_Sysdep_ME30.o
                0x000434f8                NDK_PrnInit
 .text.NDK_PrnStr
                0x0004350c       0x14 E:/Debug-Matrix/branches/ME30国内PCI认证/ME30_Matrix/Mpos_Demo_20141017_ADDV2/Mpos_Demo/configs/ME30/NDK_Sysdep_ME30.o
                0x0004350c                NDK_PrnStr
 .text.NDK_PrnStart
                0x00043520       0x14 E:/Debug-Matrix/branches/ME30国内PCI认证/ME30_Matrix/Mpos_Demo_20141017_ADDV2/Mpos_Demo/configs/ME30/NDK_Sysdep_ME30.o
                0x00043520                NDK_PrnStart
 .text.NDK_PrnImage
                0x00043534       0x14 E:/Debug-Matrix/branches/ME30国内PCI认证/ME30_Matrix/Mpos_Demo_20141017_ADDV2/Mpos_Demo/configs/ME30/NDK_Sysdep_ME30.o
                0x00043534                NDK_PrnImage
 .text.NDK_PrnGetVersion
                0x00043548       0x14 E:/Debug-Matrix/branches/ME30国内PCI认证/ME30_Matrix/Mpos_Demo_20141017_ADDV2/Mpos_Demo/configs/ME30/NDK_Sysdep_ME30.o
                0x00043548                NDK_PrnGetVersion
 .text.NDK_PrnSetFont
                0x0004355c       0x14 E:/Debug-Matrix/branches/ME30国内PCI认证/ME30_Matrix/Mpos_Demo_20141017_ADDV2/Mpos_Demo/configs/ME30/NDK_Sysdep_ME30.o
                0x0004355c                NDK_PrnSetFont
 .text.NDK_PrnGetStatus
                0x00043570       0x14 E:/Debug-Matrix/branches/ME30国内PCI认证/ME30_Matrix/Mpos_Demo_20141017_ADDV2/Mpos_Demo/configs/ME30/NDK_Sysdep_ME30.o
                0x00043570                NDK_PrnGetStatus
 .text.NDK_PrnSetMode
                0x00043584       0x14 E:/Debug-Matrix/branches/ME30国内PCI认证/ME30_Matrix/Mpos_Demo_20141017_ADDV2/Mpos_Demo/configs/ME30/NDK_Sysdep_ME30.o
                0x00043584                NDK_PrnSetMode
 .text.NDK_PrnSetGreyScale
                0x00043598       0x14 E:/Debug-Matrix/branches/ME30国内PCI认证/ME30_Matrix/Mpos_Demo_20141017_ADDV2/Mpos_Demo/configs/ME30/NDK_Sysdep_ME30.o
                0x00043598                NDK_PrnSetGreyScale
 .text.NDK_PrnSetForm
                0x000435ac       0x14 E:/Debug-Matrix/branches/ME30国内PCI认证/ME30_Matrix/Mpos_Demo_20141017_ADDV2/Mpos_Demo/configs/ME30/NDK_Sysdep_ME30.o
                0x000435ac                NDK_PrnSetForm
 .text.NDK_PrnFeedByPixel
                0x000435c0       0x14 E:/Debug-Matrix/branches/ME30国内PCI认证/ME30_Matrix/Mpos_Demo_20141017_ADDV2/Mpos_Demo/configs/ME30/NDK_Sysdep_ME30.o
                0x000435c0                NDK_PrnFeedByPixel
 .text.NDK_PrnSetUnderLine
                0x000435d4       0x14 E:/Debug-Matrix/branches/ME30国内PCI认证/ME30_Matrix/Mpos_Demo_20141017_ADDV2/Mpos_Demo/configs/ME30/NDK_Sysdep_ME30.o
                0x000435d4                NDK_PrnSetUnderLine
 .text.NDK_PrnFontRegister
                0x000435e8       0x14 E:/Debug-Matrix/branches/ME30国内PCI认证/ME30_Matrix/Mpos_Demo_20141017_ADDV2/Mpos_Demo/configs/ME30/NDK_Sysdep_ME30.o
                0x000435e8                NDK_PrnFontRegister
 .text.NDK_PrnSetUsrFont
                0x000435fc       0x14 E:/Debug-Matrix/branches/ME30国内PCI认证/ME30_Matrix/Mpos_Demo_20141017_ADDV2/Mpos_Demo/configs/ME30/NDK_Sysdep_ME30.o
                0x000435fc                NDK_PrnSetUsrFont
 .text.NDK_PrnGetDotLine
                0x00043610       0x14 E:/Debug-Matrix/branches/ME30国内PCI认证/ME30_Matrix/Mpos_Demo_20141017_ADDV2/Mpos_Demo/configs/ME30/NDK_Sysdep_ME30.o
                0x00043610                NDK_PrnGetDotLine
 .text.NDK_PrnPicture
                0x00043624       0x14 E:/Debug-Matrix/branches/ME30国内PCI认证/ME30_Matrix/Mpos_Demo_20141017_ADDV2/Mpos_Demo/configs/ME30/NDK_Sysdep_ME30.o
                0x00043624                NDK_PrnPicture
 .text.NDK_PrnSetPageLen
                0x00043638       0x14 E:/Debug-Matrix/branches/ME30国内PCI认证/ME30_Matrix/Mpos_Demo_20141017_ADDV2/Mpos_Demo/configs/ME30/NDK_Sysdep_ME30.o
                0x00043638                NDK_PrnSetPageLen
 .text.NDK_PrnLoadBDFFont
                0x0004364c       0x14 E:/Debug-Matrix/branches/ME30国内PCI认证/ME30_Matrix/Mpos_Demo_20141017_ADDV2/Mpos_Demo/configs/ME30/NDK_Sysdep_ME30.o
                0x0004364c                NDK_PrnLoadBDFFont
 .text.NDK_PrnBDFStr
                0x00043660       0x14 E:/Debug-Matrix/branches/ME30国内PCI认证/ME30_Matrix/Mpos_Demo_20141017_ADDV2/Mpos_Demo/configs/ME30/NDK_Sysdep_ME30.o
                0x00043660                NDK_PrnBDFStr
 .text.NDK_PrnSetBDF
                0x00043674       0x18 E:/Debug-Matrix/branches/ME30国内PCI认证/ME30_Matrix/Mpos_Demo_20141017_ADDV2/Mpos_Demo/configs/ME30/NDK_Sysdep_ME30.o
                0x00043674                NDK_PrnSetBDF
 .text.NDK_AudioTXSel
                0x0004368c       0x14 E:/Debug-Matrix/branches/ME30国内PCI认证/ME30_Matrix/Mpos_Demo_20141017_ADDV2/Mpos_Demo/configs/ME30/NDK_Sysdep_ME30.o
                0x0004368c                NDK_AudioTXSel
 .text.NDK_AudioTX_FreqSel
                0x000436a0       0x14 E:/Debug-Matrix/branches/ME30国内PCI认证/ME30_Matrix/Mpos_Demo_20141017_ADDV2/Mpos_Demo/configs/ME30/NDK_Sysdep_ME30.o
                0x000436a0                NDK_AudioTX_FreqSel
 .text.NDK_KbGetPad
                0x000436b4       0x14 E:/Debug-Matrix/branches/ME30国内PCI认证/ME30_Matrix/Mpos_Demo_20141017_ADDV2/Mpos_Demo/configs/ME30/NDK_Sysdep_ME30.o
                0x000436b4                NDK_KbGetPad
 .text.NDK_PlayVoice
                0x000436c8       0x14 E:/Debug-Matrix/branches/ME30国内PCI认证/ME30_Matrix/Mpos_Demo_20141017_ADDV2/Mpos_Demo/configs/ME30/NDK_Sysdep_ME30.o
                0x000436c8                NDK_PlayVoice
 .text.NDK_SysEnterBoot
                0x000436dc       0x14 E:/Debug-Matrix/branches/ME30国内PCI认证/ME30_Matrix/Mpos_Demo_20141017_ADDV2/Mpos_Demo/configs/ME30/NDK_Sysdep_ME30.o
                0x000436dc                NDK_SysEnterBoot
 .text.NDK_SysPeerOper
                0x000436f0       0x14 E:/Debug-Matrix/branches/ME30国内PCI认证/ME30_Matrix/Mpos_Demo_20141017_ADDV2/Mpos_Demo/configs/ME30/NDK_Sysdep_ME30.o
                0x000436f0                NDK_SysPeerOper
 .text.startup  0x00043704        0xa E:\Debug-Matrix\branches\ME30国内PCI认证\ME30_Matrix\Mpos_Demo_20141017_ADDV2\Mpos_Demo\build\EEEPAY2\ME30/cmd/cmd.o
                0x00043704                main

.vfp11_veneer   0x00043710        0x0
 .vfp11_veneer  0x00000000        0x0 linker stubs

.v4_bx          0x00043710        0x0
 .v4_bx         0x00000000        0x0 linker stubs

.iplt           0x00043710        0x0
 .iplt          0x00000000        0x0 E:/Debug-Matrix/branches/ME30国内PCI认证/ME30_Matrix/Mpos_Demo_20141017_ADDV2/Mpos_Demo/configs/ME30/NDK_Sysdep_ME30.o

.rodata         0x00043710      0xb98
 *(.rodata)
 .rodata        0x00043710      0x4b4 E:\Debug-Matrix\branches\ME30国内PCI认证\ME30_Matrix\Mpos_Demo_20141017_ADDV2\Mpos_Demo\build\EEEPAY2\ME30/api/api.o
                0x00043b78                nlMpos_Command
 .rodata        0x00043bc4        0x8 E:\Debug-Matrix\branches\ME30国内PCI认证\ME30_Matrix\Mpos_Demo_20141017_ADDV2\Mpos_Demo\build\EEEPAY2\ME30/cmd/cmd.o
 .rodata        0x00043bcc      0x100 E:/Debug-Matrix/branches/ME30国内PCI认证/ME30_Matrix/Mpos_Demo_20141017_ADDV2/Mpos_Demo/libs/libc_Cortex-M4_nofpu.a(ctype.o)
                0x00043bcc                _ctype
 *(.rodata*)
 .rodata.str1.1
                0x00043ccc       0x46 E:\Debug-Matrix\branches\ME30国内PCI认证\ME30_Matrix\Mpos_Demo_20141017_ADDV2\Mpos_Demo\build\EEEPAY2\ME30/api/api.o
                                 0x4f (size before relaxing)
 .rodata.str1.1
                0x00043d12      0x56a E:\Debug-Matrix\branches\ME30国内PCI认证\ME30_Matrix\Mpos_Demo_20141017_ADDV2\Mpos_Demo\build\EEEPAY2\ME30/cmd/cmd.o
                                0x578 (size before relaxing)
 .rodata.str1.1
                0x0004427c       0x29 E:/Debug-Matrix/branches/ME30国内PCI认证/ME30_Matrix/Mpos_Demo_20141017_ADDV2/Mpos_Demo/libs/libc_Cortex-M4_nofpu.a(doprntx.o)
 *(.glue_7)
 .glue_7        0x00000000        0x0 linker stubs
 *(.glue_7t)
 .glue_7t       0x00000000        0x0 linker stubs
                0x000442a8                . = ALIGN (0x4)
 *fill*         0x000442a5        0x3 00
                0x000442a8                _etext = .
                0x000442a8                _sidata = _etext

.rel.dyn        0x000442a8        0x0
 .rel.iplt      0x00000000        0x0 E:/Debug-Matrix/branches/ME30国内PCI认证/ME30_Matrix/Mpos_Demo_20141017_ADDV2/Mpos_Demo/configs/ME30/NDK_Sysdep_ME30.o

.data           0x1fffe000        0x8 load address 0x000442a8
                0x1fffe000                . = ALIGN (0x4)
                0x1fffe000                _sdata = .
 *(.data)
 .data          0x1fffe000        0x0 E:/Debug-Matrix/branches/ME30国内PCI认证/ME30_Matrix/Mpos_Demo_20141017_ADDV2/Mpos_Demo/configs/ME30/NDK_Sysdep_ME30.o
 .data          0x1fffe000        0x4 E:\Debug-Matrix\branches\ME30国内PCI认证\ME30_Matrix\Mpos_Demo_20141017_ADDV2\Mpos_Demo\build\EEEPAY2\ME30/api/api.o
                0x1fffe000                c_TParamPrint
                0x1fffe002                c_TParamTLV
 .data          0x1fffe004        0x4 E:\Debug-Matrix\branches\ME30国内PCI认证\ME30_Matrix\Mpos_Demo_20141017_ADDV2\Mpos_Demo\build\EEEPAY2\ME30/cmd/cmd.o
 .data          0x1fffe008        0x0 E:/Debug-Matrix/branches/ME30国内PCI认证/ME30_Matrix/Mpos_Demo_20141017_ADDV2/Mpos_Demo/libs/libc_Cortex-M4_nofpu.a(atoi.o)
 .data          0x1fffe008        0x0 E:/Debug-Matrix/branches/ME30国内PCI认证/ME30_Matrix/Mpos_Demo_20141017_ADDV2/Mpos_Demo/libs/libc_Cortex-M4_nofpu.a(memcmp.o)
 .data          0x1fffe008        0x0 E:/Debug-Matrix/branches/ME30国内PCI认证/ME30_Matrix/Mpos_Demo_20141017_ADDV2/Mpos_Demo/libs/libc_Cortex-M4_nofpu.a(memcpy.o)
 .data          0x1fffe008        0x0 E:/Debug-Matrix/branches/ME30国内PCI认证/ME30_Matrix/Mpos_Demo_20141017_ADDV2/Mpos_Demo/libs/libc_Cortex-M4_nofpu.a(memset.o)
 .data          0x1fffe008        0x0 E:/Debug-Matrix/branches/ME30国内PCI认证/ME30_Matrix/Mpos_Demo_20141017_ADDV2/Mpos_Demo/libs/libc_Cortex-M4_nofpu.a(sprintf.o)
 .data          0x1fffe008        0x0 E:/Debug-Matrix/branches/ME30国内PCI认证/ME30_Matrix/Mpos_Demo_20141017_ADDV2/Mpos_Demo/libs/libc_Cortex-M4_nofpu.a(strcmp.o)
 .data          0x1fffe008        0x0 E:/Debug-Matrix/branches/ME30国内PCI认证/ME30_Matrix/Mpos_Demo_20141017_ADDV2/Mpos_Demo/libs/libc_Cortex-M4_nofpu.a(strcpy.o)
 .data          0x1fffe008        0x0 E:/Debug-Matrix/branches/ME30国内PCI认证/ME30_Matrix/Mpos_Demo_20141017_ADDV2/Mpos_Demo/libs/libc_Cortex-M4_nofpu.a(strlen.o)
 .data          0x1fffe008        0x0 E:/Debug-Matrix/branches/ME30国内PCI认证/ME30_Matrix/Mpos_Demo_20141017_ADDV2/Mpos_Demo/libs/libc_Cortex-M4_nofpu.a(strtol.o)
 .data          0x1fffe008        0x0 E:/Debug-Matrix/branches/ME30国内PCI认证/ME30_Matrix/Mpos_Demo_20141017_ADDV2/Mpos_Demo/libs/libc_Cortex-M4_nofpu.a(ctype.o)
 .data          0x1fffe008        0x0 E:/Debug-Matrix/branches/ME30国内PCI认证/ME30_Matrix/Mpos_Demo_20141017_ADDV2/Mpos_Demo/libs/libc_Cortex-M4_nofpu.a(doprntx.o)
 .data          0x1fffe008        0x0 E:/Debug-Matrix/branches/ME30国内PCI认证/ME30_Matrix/Mpos_Demo_20141017_ADDV2/Mpos_Demo/libs/libc_Cortex-M4_nofpu.a(memchr.o)
 *(.data.*)
                0x1fffe008                . = ALIGN (0x4)
                0x1fffe008                _edata = .

.igot.plt       0x1fffe008        0x0 load address 0x000442b0
 .igot.plt      0x00000000        0x0 E:/Debug-Matrix/branches/ME30国内PCI认证/ME30_Matrix/Mpos_Demo_20141017_ADDV2/Mpos_Demo/configs/ME30/NDK_Sysdep_ME30.o

.bss            0x1fffe008      0xe40 load address 0x000442b0
                0x1fffe008                . = ALIGN (0x4)
                0x1fffe008                _sbss = .
 *(.bss)
 .bss           0x1fffe008        0x0 E:/Debug-Matrix/branches/ME30国内PCI认证/ME30_Matrix/Mpos_Demo_20141017_ADDV2/Mpos_Demo/configs/ME30/NDK_Sysdep_ME30.o
 .bss           0x1fffe008       0x18 E:\Debug-Matrix\branches\ME30国内PCI认证\ME30_Matrix\Mpos_Demo_20141017_ADDV2\Mpos_Demo\build\EEEPAY2\ME30/api/api.o
 .bss           0x1fffe020      0xe24 E:\Debug-Matrix\branches\ME30国内PCI认证\ME30_Matrix\Mpos_Demo_20141017_ADDV2\Mpos_Demo\build\EEEPAY2\ME30/cmd/cmd.o
                0x1fffe020                g_me31conf
                0x1fffe148                g_METPEDCtl
                0x1fffe19c                ME_Host_Command_Buf
                0x1fffe99c                RN1originalplaintext
                0x1fffe9ac                RN3origalplaintext
                0x1fffe9bc                AuthOK
                0x1fffe9c0                geoposition
                0x1fffea40                plaintextResponse
                0x1fffee40                unionpay_recv_OK
 .bss           0x1fffee44        0x0 E:/Debug-Matrix/branches/ME30国内PCI认证/ME30_Matrix/Mpos_Demo_20141017_ADDV2/Mpos_Demo/libs/libc_Cortex-M4_nofpu.a(atoi.o)
 .bss           0x1fffee44        0x0 E:/Debug-Matrix/branches/ME30国内PCI认证/ME30_Matrix/Mpos_Demo_20141017_ADDV2/Mpos_Demo/libs/libc_Cortex-M4_nofpu.a(memcmp.o)
 .bss           0x1fffee44        0x0 E:/Debug-Matrix/branches/ME30国内PCI认证/ME30_Matrix/Mpos_Demo_20141017_ADDV2/Mpos_Demo/libs/libc_Cortex-M4_nofpu.a(memcpy.o)
 .bss           0x1fffee44        0x0 E:/Debug-Matrix/branches/ME30国内PCI认证/ME30_Matrix/Mpos_Demo_20141017_ADDV2/Mpos_Demo/libs/libc_Cortex-M4_nofpu.a(memset.o)
 .bss           0x1fffee44        0x0 E:/Debug-Matrix/branches/ME30国内PCI认证/ME30_Matrix/Mpos_Demo_20141017_ADDV2/Mpos_Demo/libs/libc_Cortex-M4_nofpu.a(sprintf.o)
 .bss           0x1fffee44        0x0 E:/Debug-Matrix/branches/ME30国内PCI认证/ME30_Matrix/Mpos_Demo_20141017_ADDV2/Mpos_Demo/libs/libc_Cortex-M4_nofpu.a(strcmp.o)
 .bss           0x1fffee44        0x0 E:/Debug-Matrix/branches/ME30国内PCI认证/ME30_Matrix/Mpos_Demo_20141017_ADDV2/Mpos_Demo/libs/libc_Cortex-M4_nofpu.a(strcpy.o)
 .bss           0x1fffee44        0x0 E:/Debug-Matrix/branches/ME30国内PCI认证/ME30_Matrix/Mpos_Demo_20141017_ADDV2/Mpos_Demo/libs/libc_Cortex-M4_nofpu.a(strlen.o)
 .bss           0x1fffee44        0x0 E:/Debug-Matrix/branches/ME30国内PCI认证/ME30_Matrix/Mpos_Demo_20141017_ADDV2/Mpos_Demo/libs/libc_Cortex-M4_nofpu.a(strtol.o)
 .bss           0x1fffee44        0x0 E:/Debug-Matrix/branches/ME30国内PCI认证/ME30_Matrix/Mpos_Demo_20141017_ADDV2/Mpos_Demo/libs/libc_Cortex-M4_nofpu.a(ctype.o)
 .bss           0x1fffee44        0x0 E:/Debug-Matrix/branches/ME30国内PCI认证/ME30_Matrix/Mpos_Demo_20141017_ADDV2/Mpos_Demo/libs/libc_Cortex-M4_nofpu.a(doprntx.o)
 .bss           0x1fffee44        0x0 E:/Debug-Matrix/branches/ME30国内PCI认证/ME30_Matrix/Mpos_Demo_20141017_ADDV2/Mpos_Demo/libs/libc_Cortex-M4_nofpu.a(memchr.o)
 *(.bss.*)
 .bss.sysapi    0x1fffee44        0x4 E:/Debug-Matrix/branches/ME30国内PCI认证/ME30_Matrix/Mpos_Demo_20141017_ADDV2/Mpos_Demo/configs/ME30/NDK_Sysdep_ME30.o
                0x1fffee44                sysapi
 *(COMMON)
                0x1fffee48                . = ALIGN (0x4)
                0x1fffee48                _ebss = .
                0x1fffee48                _end = .

.ARM.exidx      0x1fffee48        0x0
                0x1fffee48                . = ALIGN (0x4)
 *(.exidx)
 *(.exidx.*)
START GROUP
LOAD E:/Debug-Matrix/branches/ME30国内PCI认证/ME30_Matrix/Mpos_Demo_20141017_ADDV2/Mpos_Demo/libs/libc_Cortex-M4_nofpu.a
END GROUP
OUTPUT(E:\Debug-Matrix\branches\ME30国内PCI认证\ME30_Matrix\Mpos_Demo_20141017_ADDV2\Mpos_Demo\build\EEEPAY2\ME30/EEEPAY2_ME30.elf elf32-littlearm)

.comment        0x00000000       0x70
 .comment       0x00000000       0x70 E:/Debug-Matrix/branches/ME30国内PCI认证/ME30_Matrix/Mpos_Demo_20141017_ADDV2/Mpos_Demo/configs/ME30/NDK_Sysdep_ME30.o
                                 0x71 (size before relaxing)
 .comment       0x00000000       0x71 E:\Debug-Matrix\branches\ME30国内PCI认证\ME30_Matrix\Mpos_Demo_20141017_ADDV2\Mpos_Demo\build\EEEPAY2\ME30/api/api.o
 .comment       0x00000000      0x153 E:\Debug-Matrix\branches\ME30国内PCI认证\ME30_Matrix\Mpos_Demo_20141017_ADDV2\Mpos_Demo\build\EEEPAY2\ME30/cmd/cmd.o
 .comment       0x00000000       0x71 E:/Debug-Matrix/branches/ME30国内PCI认证/ME30_Matrix/Mpos_Demo_20141017_ADDV2/Mpos_Demo/libs/libc_Cortex-M4_nofpu.a(atoi.o)
 .comment       0x00000000       0x71 E:/Debug-Matrix/branches/ME30国内PCI认证/ME30_Matrix/Mpos_Demo_20141017_ADDV2/Mpos_Demo/libs/libc_Cortex-M4_nofpu.a(memcmp.o)
 .comment       0x00000000       0x71 E:/Debug-Matrix/branches/ME30国内PCI认证/ME30_Matrix/Mpos_Demo_20141017_ADDV2/Mpos_Demo/libs/libc_Cortex-M4_nofpu.a(memcpy.o)
 .comment       0x00000000       0x71 E:/Debug-Matrix/branches/ME30国内PCI认证/ME30_Matrix/Mpos_Demo_20141017_ADDV2/Mpos_Demo/libs/libc_Cortex-M4_nofpu.a(memset.o)
 .comment       0x00000000       0x71 E:/Debug-Matrix/branches/ME30国内PCI认证/ME30_Matrix/Mpos_Demo_20141017_ADDV2/Mpos_Demo/libs/libc_Cortex-M4_nofpu.a(sprintf.o)
 .comment       0x00000000       0x71 E:/Debug-Matrix/branches/ME30国内PCI认证/ME30_Matrix/Mpos_Demo_20141017_ADDV2/Mpos_Demo/libs/libc_Cortex-M4_nofpu.a(strcmp.o)
 .comment       0x00000000       0x71 E:/Debug-Matrix/branches/ME30国内PCI认证/ME30_Matrix/Mpos_Demo_20141017_ADDV2/Mpos_Demo/libs/libc_Cortex-M4_nofpu.a(strcpy.o)
 .comment       0x00000000       0x71 E:/Debug-Matrix/branches/ME30国内PCI认证/ME30_Matrix/Mpos_Demo_20141017_ADDV2/Mpos_Demo/libs/libc_Cortex-M4_nofpu.a(strlen.o)
 .comment       0x00000000       0x71 E:/Debug-Matrix/branches/ME30国内PCI认证/ME30_Matrix/Mpos_Demo_20141017_ADDV2/Mpos_Demo/libs/libc_Cortex-M4_nofpu.a(strtol.o)
 .comment       0x00000000       0x71 E:/Debug-Matrix/branches/ME30国内PCI认证/ME30_Matrix/Mpos_Demo_20141017_ADDV2/Mpos_Demo/libs/libc_Cortex-M4_nofpu.a(ctype.o)
 .comment       0x00000000       0x71 E:/Debug-Matrix/branches/ME30国内PCI认证/ME30_Matrix/Mpos_Demo_20141017_ADDV2/Mpos_Demo/libs/libc_Cortex-M4_nofpu.a(doprntx.o)
 .comment       0x00000000       0x71 E:/Debug-Matrix/branches/ME30国内PCI认证/ME30_Matrix/Mpos_Demo_20141017_ADDV2/Mpos_Demo/libs/libc_Cortex-M4_nofpu.a(memchr.o)

.ARM.attributes
                0x00000000       0x33
 .ARM.attributes
                0x00000000       0x33 E:/Debug-Matrix/branches/ME30国内PCI认证/ME30_Matrix/Mpos_Demo_20141017_ADDV2/Mpos_Demo/configs/ME30/NDK_Sysdep_ME30.o
 .ARM.attributes
                0x00000033       0x33 E:\Debug-Matrix\branches\ME30国内PCI认证\ME30_Matrix\Mpos_Demo_20141017_ADDV2\Mpos_Demo\build\EEEPAY2\ME30/api/api.o
 .ARM.attributes
                0x00000066       0x33 E:\Debug-Matrix\branches\ME30国内PCI认证\ME30_Matrix\Mpos_Demo_20141017_ADDV2\Mpos_Demo\build\EEEPAY2\ME30/cmd/cmd.o
 .ARM.attributes
                0x00000099       0x33 E:/Debug-Matrix/branches/ME30国内PCI认证/ME30_Matrix/Mpos_Demo_20141017_ADDV2/Mpos_Demo/libs/libc_Cortex-M4_nofpu.a(atoi.o)
 .ARM.attributes
                0x000000cc       0x33 E:/Debug-Matrix/branches/ME30国内PCI认证/ME30_Matrix/Mpos_Demo_20141017_ADDV2/Mpos_Demo/libs/libc_Cortex-M4_nofpu.a(memcmp.o)
 .ARM.attributes
                0x000000ff       0x33 E:/Debug-Matrix/branches/ME30国内PCI认证/ME30_Matrix/Mpos_Demo_20141017_ADDV2/Mpos_Demo/libs/libc_Cortex-M4_nofpu.a(memcpy.o)
 .ARM.attributes
                0x00000132       0x33 E:/Debug-Matrix/branches/ME30国内PCI认证/ME30_Matrix/Mpos_Demo_20141017_ADDV2/Mpos_Demo/libs/libc_Cortex-M4_nofpu.a(memset.o)
 .ARM.attributes
                0x00000165       0x33 E:/Debug-Matrix/branches/ME30国内PCI认证/ME30_Matrix/Mpos_Demo_20141017_ADDV2/Mpos_Demo/libs/libc_Cortex-M4_nofpu.a(sprintf.o)
 .ARM.attributes
                0x00000198       0x33 E:/Debug-Matrix/branches/ME30国内PCI认证/ME30_Matrix/Mpos_Demo_20141017_ADDV2/Mpos_Demo/libs/libc_Cortex-M4_nofpu.a(strcmp.o)
 .ARM.attributes
                0x000001cb       0x33 E:/Debug-Matrix/branches/ME30国内PCI认证/ME30_Matrix/Mpos_Demo_20141017_ADDV2/Mpos_Demo/libs/libc_Cortex-M4_nofpu.a(strcpy.o)
 .ARM.attributes
                0x000001fe       0x33 E:/Debug-Matrix/branches/ME30国内PCI认证/ME30_Matrix/Mpos_Demo_20141017_ADDV2/Mpos_Demo/libs/libc_Cortex-M4_nofpu.a(strlen.o)
 .ARM.attributes
                0x00000231       0x33 E:/Debug-Matrix/branches/ME30国内PCI认证/ME30_Matrix/Mpos_Demo_20141017_ADDV2/Mpos_Demo/libs/libc_Cortex-M4_nofpu.a(strtol.o)
 .ARM.attributes
                0x00000264       0x33 E:/Debug-Matrix/branches/ME30国内PCI认证/ME30_Matrix/Mpos_Demo_20141017_ADDV2/Mpos_Demo/libs/libc_Cortex-M4_nofpu.a(ctype.o)
 .ARM.attributes
                0x00000297       0x33 E:/Debug-Matrix/branches/ME30国内PCI认证/ME30_Matrix/Mpos_Demo_20141017_ADDV2/Mpos_Demo/libs/libc_Cortex-M4_nofpu.a(doprntx.o)
 .ARM.attributes
                0x000002ca       0x33 E:/Debug-Matrix/branches/ME30国内PCI认证/ME30_Matrix/Mpos_Demo_20141017_ADDV2/Mpos_Demo/libs/libc_Cortex-M4_nofpu.a(memchr.o)
