Archive member included because of file (symbol)

F:/Code/chinaums2.1_20140929/libs/libc_Cortex-M4_nofpu.a(atoi.o)
                              F:\Code\chinaums2.1_20140929\build\common\ME30/cmd/cmd.o (atoi)
F:/Code/chinaums2.1_20140929/libs/libc_Cortex-M4_nofpu.a(memcmp.o)
                              F:\Code\chinaums2.1_20140929\build\common\ME30/api/api.o (memcmp)
F:/Code/chinaums2.1_20140929/libs/libc_Cortex-M4_nofpu.a(memcpy.o)
                              F:\Code\chinaums2.1_20140929\build\common\ME30/api/api.o (memcpy)
F:/Code/chinaums2.1_20140929/libs/libc_Cortex-M4_nofpu.a(memset.o)
                              F:\Code\chinaums2.1_20140929\build\common\ME30/api/api.o (memset)
F:/Code/chinaums2.1_20140929/libs/libc_Cortex-M4_nofpu.a(sprintf.o)
                              F:/Code/chinaums2.1_20140929/configs/ME30/NDK_Sysdep_ME30.o (vsprintf)
F:/Code/chinaums2.1_20140929/libs/libc_Cortex-M4_nofpu.a(strchr.o)
                              F:\Code\chinaums2.1_20140929\build\common\ME30/cmd/cmd.o (strchr)
F:/Code/chinaums2.1_20140929/libs/libc_Cortex-M4_nofpu.a(strcmp.o)
                              F:\Code\chinaums2.1_20140929\build\common\ME30/cmd/cmd.o (strcmp)
F:/Code/chinaums2.1_20140929/libs/libc_Cortex-M4_nofpu.a(strcpy.o)
                              F:\Code\chinaums2.1_20140929\build\common\ME30/cmd/cmd.o (strcpy)
F:/Code/chinaums2.1_20140929/libs/libc_Cortex-M4_nofpu.a(strlen.o)
                              F:\Code\chinaums2.1_20140929\build\common\ME30/api/api.o (strlen)
F:/Code/chinaums2.1_20140929/libs/libc_Cortex-M4_nofpu.a(strtok.o)
                              F:\Code\chinaums2.1_20140929\build\common\ME30/cmd/cmd.o (strtok)
F:/Code/chinaums2.1_20140929/libs/libc_Cortex-M4_nofpu.a(strtol.o)
                              F:/Code/chinaums2.1_20140929/libs/libc_Cortex-M4_nofpu.a(atoi.o) (strtol)
F:/Code/chinaums2.1_20140929/libs/libc_Cortex-M4_nofpu.a(ctype.o)
                              F:/Code/chinaums2.1_20140929/libs/libc_Cortex-M4_nofpu.a(strtol.o) (_ctype)
F:/Code/chinaums2.1_20140929/libs/libc_Cortex-M4_nofpu.a(doprntx.o)
                              F:/Code/chinaums2.1_20140929/libs/libc_Cortex-M4_nofpu.a(sprintf.o) (_doprntx)
F:/Code/chinaums2.1_20140929/libs/libc_Cortex-M4_nofpu.a(memchr.o)
                              F:/Code/chinaums2.1_20140929/libs/libc_Cortex-M4_nofpu.a(doprntx.o) (memchr)

Memory Configuration

Name             Origin             Length             Attributes
RAM              0x1fffe000         0x00008000
NOR              0x00040000         0x00040000
*default*        0x00000000         0xffffffff

Linker script and memory map

LOAD F:/Code/chinaums2.1_20140929/configs/ME30/NDK_Sysdep_ME30.o
LOAD F:\Code\chinaums2.1_20140929\build\common\ME30/api/api.o
LOAD F:\Code\chinaums2.1_20140929\build\common\ME30/cmd/cmd.o
LOAD F:\Code\chinaums2.1_20140929\build\common\ME30/app/app.o
LOAD h:/mentorgraphics/sourcery_codebench_lite_for_arm_eabi/bin/../lib/gcc/arm-none-eabi/4.8.1/thumb2/\libgcc.a

.mod_init       0x00040000       0x28
                0x00040000                _stext = .
 *(.mod.header)
 .mod.header    0x00040000       0x28 F:/Code/chinaums2.1_20140929/configs/ME30/NDK_Sysdep_ME30.o

.text           0x00040028     0xc3f8
                0x00040028                . = ALIGN (0x4)
 *(.text)
 .text          0x00040028        0x0 F:/Code/chinaums2.1_20140929/configs/ME30/NDK_Sysdep_ME30.o
 .text          0x00040028     0x3b6c F:\Code\chinaums2.1_20140929\build\common\ME30/api/api.o
                0x00040028                ClrBackChar
                0x00040080                ClrLine
                0x000400a6                DispOneChar
                0x000400cc                DispAlphaChar
                0x00040100                IsAscii
                0x00040110                IsHZ
                0x00040120                me_ScrGotoxy
                0x00040150                me_ScrGetxy
                0x0004017c                me_ScrDispString
                0x000401b8                mpos_DispStrXY
                0x0004021e                mpos_DispImage
                0x000402ba                me_show_bt_icon
                0x000402ec                me_SysGetPowerVol
                0x0004031a                ME_DispStaBar
                0x00040360                me_ScrClrs
                0x0004038c                me_show_bat_icon
                0x000404ec                me_SetRangeBits
                0x0004050c                me_currency_display
                0x000405cc                me_getline_nl
                0x000409a0                me_getcurrency_nl
                0x00040c0e                TlvAdd
                0x00040cdc                GetTagByBuf
                0x00040d18                Tlv_Tag2List
                0x00040d6c                parse_tlv
                0x00040dc4                fetch_tlv
                0x00040dfe                find_dup_tlv
                0x00040e2a                decode_tag
                0x00040e88                mpos_clearonetlv
                0x00040fd8                mpos_writeonetlv
                0x000411e4                mpos_readonetlv
                0x0004130c                mpos_writemacdata
                0x00041464                mpos_readmacdata
                0x00041558                ME_TlvInit
                0x000415bc                PubAscToHex
                0x0004161e                PubHexToAsc
                0x0004166e                des_ecb
                0x000416e0                des_cbc
                0x000417f8                ME_SysCountdown
                0x00041a4c                ME_AlgCalcMAC
                0x00041cb8                ME_AlgCalcDes
                0x00041d1c                ME_SecKeyDispersion
                0x00041dbc                ME_SecSetCBCInitValue
                0x00041dd0                ME_SecCalcDesIndex
                0x00041fec                UnionPay_TrackEncrypt
                0x000420d8                ChengDuRCB_TrackEncrypt
                0x000421f4                Fuyou_TrackEncrypt
                0x00042368                MiniPay_TrackEncrypt
                0x00042430                IcardPay_TrackEncrypt
                0x000424e0                TongLian_TrackEncrypt
                0x000425c4                WuHanQD_TrackEncrypt
                0x00042858                QuaiQian_TrackEncrypt
                0x000429f8                ChinaUms_TrackEncrypt
                0x00042bac                ChinaUms_PinEncrypt
                0x00042e18                Eptok_TrackEncrypt
                0x00042f70                Eptok_MacEncrypt
                0x0004307c                calc_pin_block
                0x00043388                ME_SecGetPlainPin
                0x0004347c                CommandParse_Pboc_End
                0x0004347c                CommandParse_SetFont
                0x0004347c                CommandParse_SetFontColor
                0x0004347c                CommandParse_PaperSkip
                0x0004347c                ME_DefaultCmd
                0x0004347c                CommandParse_QPboc_Pboc
                0x0004347c                CommandParse_Pboc_Standard
                0x0004347c                CommandParse_SetRefreshMode
                0x0004347c                CommandParse_GetPrnStatus
                0x0004347c                CommandParse_PbocCapk_Set
                0x0004347c                CommandParse_DownloadMode
                0x0004347c                CommandParse_PrintNormal
                0x0004347c                CommandParse_Setting
                0x0004347c                CommandParse_SetLineSpace
                0x0004347c                CommandParse_GetMagCard_ME30
                0x0004347c                CommandParse_LoadMenu
                0x0004347c                CommandParse_LoadKey_ME30
                0x0004347c                CommandParse_SetFontType
                0x0004347c                CommandParse_Refresh
                0x0004347c                CommandParse_PasswordInput_ME30
                0x0004347c                CommandParse_IccSetType
                0x0004347c                CommandParse_SetGreyScale
                0x0004347c                CommandParse_OpenCard_ME30
                0x0004347c                CommandParse_PbocAid_Set
                0x0004347c                CommandParse_Pboc_GetData
                0x0004347c                CommandParse_TranPro_Set
                0x0004347c                CommandParse_Pboc_GetLastWaterinfo
                0x0004347c                CommandParse_PrnInit
                0x0004347c                CommandParse_Pboc_SencAuth
                0x00043482                ME_Endian_Swab16
                0x00043488                ME_Endian_Swab32
                0x0004348c                ME_Bcd2Int
                0x000434ca                ME_Int2Bcd
                0x0004352a                ME_ReadLen
                0x0004352e                ME_WriteLen
                0x00043532                ME_GetVar
                0x000435b0                ME_API_COMInit
                0x0004361c                ME_SetVar
                0x0004376c                ME_Printf
                0x000437ec                ME_Send_Responsion_To_Host
                0x00043990                ME_GetCmdOffset
                0x00043994                ME_GetVarOffset
                0x00043998                ME_GetVarLen
                0x000439a0                ME_API_COMClose
                0x000439ac                ME_GetMessageType
                0x000439bc                ME_GetBtPort
                0x000439bc                ME_BTGetVer
                0x000439c0                ME_BTGetPIN
                0x000439c4                ME_BtReset24
                0x000439ca                ME_BtSetPIN
                0x00043a38                ME_BtSetName
                0x00043aa4                ME_BtGetPinNAME
                0x00043acc                ME_BtInit
                0x00043b2c                ME_BtCheck
 .text          0x00043b94     0x6f6c F:\Code\chinaums2.1_20140929\build\common\ME30/cmd/cmd.o
                0x00043b94                ME_SysExtraAction
                0x00043b9a                ME_SecKekInit
                0x00043bd2                ME_FsWrite
                0x00043c34                ME_FsRead
                0x00043cdc                ME_FsDel
                0x00043ddc                ME_MKSetup
                0x00043ddc                Default_ME_MKSetup
                0x00043f4c                ME_ConfigNew
                0x00044020                ME_ConfigConvert
                0x00044128                ME_ConfigInit
                0x00044230                ME_JudgeValue
                0x00044270                ME_ChangePosDate
                0x000444a8                ME_ChangePosTime
                0x0004469c                ME_SetDateTime
                0x000446ec                ME_DebugSwitch
                0x00044780                ME_SetSleepTime
                0x000448d8                ME_ScrSetContrast
                0x000449b4                ME_FuncMenu
                0x00044abc                ME_Sysmanage
                0x00044b24                ME_SetCommMode
                0x00044b8c                ME_Disp_Bitmap
                0x00044c8c                ME_PasswordMenu
                0x00044d44                ME_BtDisconnect
                0x00044d98                ME_BtParaSet
                0x00044ebc                ME_UsbParaSet
                0x00044f34                ME_AudioParaSet
                0x00044fdc                ME_KbHit
                0x00045018                ME_SetFrushTime
                0x00045028                ME31_SecTamper_Func
                0x00045118                ME31_PEDInit
                0x000451f4                ME31_PEDMain
                0x00045560                CommandParse_ClearScreen
                0x00045580                CommandParse_SetDispMode
                0x000455d8                CommandParse_SetLcdXY
                0x00045660                CommandParse_GetLcdXY
                0x000456cc                CommandParse_GetLcdAttr
                0x00045748                CommandParse_DispImage
                0x00045830                CommandParse_DrawLine
                0x00045924                CommandParse_DrawRectangle
                0x00045a40                CommandParse_SetBacklight
                0x00045a90                CommandParse_GetFontSize
                0x00045b00                CommandParse_Dispstr
                0x00045c88                CommandParse_KbHit
                0x00045ce4                CommandParse_KbGetCode
                0x00045dc0                CommandParse_KbGetString
                0x000460e0                ME_RecordGetNum
                0x00046158                ME_RecordSearch
                0x00046278                CommandParse_OpenRecords
                0x00046338                CommandParse_GetRecordNum
                0x000463d8                CommandParse_WriteRecord
                0x000464e4                CommandParse_GetRecord
                0x00046650                CommandParse_ModifyRecord
                0x00046794                Pan_Shield_Mask
                0x0004682c                GetCardHolderName
                0x00046894                CheckisICC
                0x000468d0                ME_CheckPanSha1
                0x00046918                ME_M1Active
                0x00046966                ME_RfidPowerup
                0x00046a6c                mpos_parsetlvstr
                0x00046acc                mpos_SecTrackEncrypt
                0x00046f9c                CommandParse_OpenCard
                0x00047448                CommandParse_CloseCard
                0x00047494                CommandParse_GetMagCardAuthen
                0x00047714                CommandParse_GetMagCard_ENC
                0x00047a44                CommandParse_IccDetect
                0x00047afc                CommandParse_IccPowerUp
                0x00047b98                CommandParse_IccPowerDown
                0x00047c08                CommandParse_Iccrw
                0x00047cd0                CommandParse_RFIDPowerup
                0x00047f00                CommandParse_RFIDPowerDown
                0x00047f64                CommandParse_RFIDAPDU
                0x00047ff4                CommandParse_M1StoreKey
                0x0004805c                CommandParse_M1LoadKey
                0x000480b8                CommandParse_M1Auth
                0x00048124                CommandParse_M1AuthKey
                0x000481a8                CommandParse_M1ReadBlock
                0x00048208                CommandParse_M1WriteBlock
                0x0004826c                CommandParse_M1Increment
                0x000482d4                CommandParse_M1Decrement
                0x0004833c                ME_SysGetDeviceAbility
                0x000483fe                CommandParse_ReadDeviceInformation
                0x00048624                CommandParse_GetRandomNumber
                0x0004864c                CommandParse_DeviceAuth
                0x000487e0                CommandParse_WriteEquipmentInformation
                0x000489ac                Parse_ParamOnLinePin
                0x00048d4c                CommandParse_PasswordInput
                0x00048db0                CommandParse_LoadMKey
                0x0004901c                CommandParse_DataEncryptionOrDecryption
                0x0004921c                CommandParse_DataMac
                0x00049620                CommandParse_LoadWKey
                0x000497f4                CommandParse_LoadDukpt
                0x000499dc                CommandParse_Buzzer
                0x00049a90                CommandParse_BlinkingLights
                0x00049bac                CommandParse_ScanStringInstruction
                0x00049bd0                CommandParse_SetDateTime
                0x00049d30                CommandParse_GetDateTime
                0x00049dac                CommandParse_SetTerminalParam
                0x00049e94                CommandParse_GetTerminalParam
                0x0004a158                CommandParse_CancelReset
                0x0004a1e4                CommandParse_LoadApp
                0x0004a4c8                CommandParse_CommTest
                0x0004a548                CommandParse_ShutDown
                0x0004a5f0                CommandParse_Bat_per
                0x0004a6a8                CommandParse_CommMode_ME30
                0x0004a77c                CommandParse_BTDisconnect
                0x0004a7d0                CommandParse_CheckData
                0x0004a894                CommandParse_SetSN
                0x0004a928                CommandParse_ReadDeviceInfoPro
 .text          0x0004ab00      0x1f4 F:\Code\chinaums2.1_20140929\build\common\ME30/app/app.o
                0x0004ab00                ME_DeviceInfo
                0x0004abc4                ME_BtFormat
                0x0004ac38                ME_SysSetPosInfo
                0x0004ac64                ME_SysGetPosInfo
                0x0004accc                ME_ParaInit
 .text          0x0004acf4        0x0 F:/Code/chinaums2.1_20140929/libs/libc_Cortex-M4_nofpu.a(atoi.o)
 .text          0x0004acf4        0x0 F:/Code/chinaums2.1_20140929/libs/libc_Cortex-M4_nofpu.a(memcmp.o)
 .text          0x0004acf4        0x0 F:/Code/chinaums2.1_20140929/libs/libc_Cortex-M4_nofpu.a(memcpy.o)
 .text          0x0004acf4        0x0 F:/Code/chinaums2.1_20140929/libs/libc_Cortex-M4_nofpu.a(memset.o)
 .text          0x0004acf4        0x0 F:/Code/chinaums2.1_20140929/libs/libc_Cortex-M4_nofpu.a(sprintf.o)
 .text          0x0004acf4        0x0 F:/Code/chinaums2.1_20140929/libs/libc_Cortex-M4_nofpu.a(strchr.o)
 .text          0x0004acf4        0x0 F:/Code/chinaums2.1_20140929/libs/libc_Cortex-M4_nofpu.a(strcmp.o)
 .text          0x0004acf4        0x0 F:/Code/chinaums2.1_20140929/libs/libc_Cortex-M4_nofpu.a(strcpy.o)
 .text          0x0004acf4        0x0 F:/Code/chinaums2.1_20140929/libs/libc_Cortex-M4_nofpu.a(strlen.o)
 .text          0x0004acf4        0x0 F:/Code/chinaums2.1_20140929/libs/libc_Cortex-M4_nofpu.a(strtok.o)
 .text          0x0004acf4        0x0 F:/Code/chinaums2.1_20140929/libs/libc_Cortex-M4_nofpu.a(strtol.o)
 .text          0x0004acf4        0x0 F:/Code/chinaums2.1_20140929/libs/libc_Cortex-M4_nofpu.a(ctype.o)
 .text          0x0004acf4        0x0 F:/Code/chinaums2.1_20140929/libs/libc_Cortex-M4_nofpu.a(doprntx.o)
 .text          0x0004acf4        0x0 F:/Code/chinaums2.1_20140929/libs/libc_Cortex-M4_nofpu.a(memchr.o)
 *(.text.*)
 .text.default_fn
                0x0004acf4        0x4 F:/Code/chinaums2.1_20140929/configs/ME30/NDK_Sysdep_ME30.o
                0x0004acf4                default_fn
                0x0004acf4                appmod_export
                0x0004acf4                appmod_init
 .text.module_init
                0x0004acf8       0x10 F:/Code/chinaums2.1_20140929/configs/ME30/NDK_Sysdep_ME30.o
                0x0004acf8                module_init
 .text.NDK_ScrInitGui
                0x0004ad08        0x4 F:/Code/chinaums2.1_20140929/configs/ME30/NDK_Sysdep_ME30.o
                0x0004ad08                NDK_ScrInitGui
 .text.NDK_ScrGotoxy
                0x0004ad0c       0x10 F:/Code/chinaums2.1_20140929/configs/ME30/NDK_Sysdep_ME30.o
                0x0004ad0c                NDK_ScrGotoxy
 .text.NDK_ScrGetxy
                0x0004ad1c       0x10 F:/Code/chinaums2.1_20140929/configs/ME30/NDK_Sysdep_ME30.o
                0x0004ad1c                NDK_ScrGetxy
 .text.NDK_ScrBackLight
                0x0004ad2c       0x10 F:/Code/chinaums2.1_20140929/configs/ME30/NDK_Sysdep_ME30.o
                0x0004ad2c                NDK_ScrBackLight
 .text.NDK_ScrSetAttr
                0x0004ad3c       0x10 F:/Code/chinaums2.1_20140929/configs/ME30/NDK_Sysdep_ME30.o
                0x0004ad3c                NDK_ScrSetAttr
 .text.NDK_ScrPush
                0x0004ad4c       0x10 F:/Code/chinaums2.1_20140929/configs/ME30/NDK_Sysdep_ME30.o
                0x0004ad4c                NDK_ScrPush
 .text.NDK_ScrPop
                0x0004ad5c       0x10 F:/Code/chinaums2.1_20140929/configs/ME30/NDK_Sysdep_ME30.o
                0x0004ad5c                NDK_ScrPop
 .text.NDK_ScrDispString
                0x0004ad6c       0x10 F:/Code/chinaums2.1_20140929/configs/ME30/NDK_Sysdep_ME30.o
                0x0004ad6c                NDK_ScrDispString
 .text.NDK_ScrGetPixel
                0x0004ad7c       0x10 F:/Code/chinaums2.1_20140929/configs/ME30/NDK_Sysdep_ME30.o
                0x0004ad7c                NDK_ScrGetPixel
 .text.NDK_ScrPutPixel
                0x0004ad8c       0x10 F:/Code/chinaums2.1_20140929/configs/ME30/NDK_Sysdep_ME30.o
                0x0004ad8c                NDK_ScrPutPixel
 .text.NDK_ScrLine
                0x0004ad9c       0x14 F:/Code/chinaums2.1_20140929/configs/ME30/NDK_Sysdep_ME30.o
                0x0004ad9c                NDK_ScrLine
 .text.NDK_ScrRectangle
                0x0004adb0       0x1c F:/Code/chinaums2.1_20140929/configs/ME30/NDK_Sysdep_ME30.o
                0x0004adb0                NDK_ScrRectangle
 .text.NDK_ScrClrLine
                0x0004adcc       0x10 F:/Code/chinaums2.1_20140929/configs/ME30/NDK_Sysdep_ME30.o
                0x0004adcc                NDK_ScrClrLine
 .text.NDK_ScrDrawBitmap
                0x0004addc       0x14 F:/Code/chinaums2.1_20140929/configs/ME30/NDK_Sysdep_ME30.o
                0x0004addc                NDK_ScrDrawBitmap
 .text.NDK_ScrSetContrast
                0x0004adf0       0x10 F:/Code/chinaums2.1_20140929/configs/ME30/NDK_Sysdep_ME30.o
                0x0004adf0                NDK_ScrSetContrast
 .text.NDK_ScrGetLcdSize
                0x0004ae00       0x10 F:/Code/chinaums2.1_20140929/configs/ME30/NDK_Sysdep_ME30.o
                0x0004ae00                NDK_ScrGetLcdSize
 .text.NDK_ScrClrs
                0x0004ae10       0x10 F:/Code/chinaums2.1_20140929/configs/ME30/NDK_Sysdep_ME30.o
                0x0004ae10                NDK_ScrClrs
 .text.NDK_ScrGetFontSize
                0x0004ae20       0x10 F:/Code/chinaums2.1_20140929/configs/ME30/NDK_Sysdep_ME30.o
                0x0004ae20                NDK_ScrGetFontSize
 .text.NDK_ScrDispPic
                0x0004ae30       0x18 F:/Code/chinaums2.1_20140929/configs/ME30/NDK_Sysdep_ME30.o
                0x0004ae30                NDK_ScrDispPic
 .text.NDK_ScrPrintf
                0x0004ae48       0x48 F:/Code/chinaums2.1_20140929/configs/ME30/NDK_Sysdep_ME30.o
                0x0004ae48                NDK_ScrPrintf
 .text.NDK_KbHit
                0x0004ae90       0x10 F:/Code/chinaums2.1_20140929/configs/ME30/NDK_Sysdep_ME30.o
                0x0004ae90                NDK_KbHit
 .text.NDK_KbFlush
                0x0004aea0       0x10 F:/Code/chinaums2.1_20140929/configs/ME30/NDK_Sysdep_ME30.o
                0x0004aea0                NDK_KbFlush
 .text.NDK_KbGetCode
                0x0004aeb0       0x10 F:/Code/chinaums2.1_20140929/configs/ME30/NDK_Sysdep_ME30.o
                0x0004aeb0                NDK_KbGetCode
 .text.NDK_KbGetInput
                0x0004aec0       0x24 F:/Code/chinaums2.1_20140929/configs/ME30/NDK_Sysdep_ME30.o
                0x0004aec0                NDK_KbGetInput
 .text.NDK_KbScanCode
                0x0004aee4       0x14 F:/Code/chinaums2.1_20140929/configs/ME30/NDK_Sysdep_ME30.o
                0x0004aee4                NDK_KbScanCode
 .text.NDK_PortOpen
                0x0004aef8       0x10 F:/Code/chinaums2.1_20140929/configs/ME30/NDK_Sysdep_ME30.o
                0x0004aef8                NDK_PortOpen
 .text.NDK_PortClose
                0x0004af08       0x10 F:/Code/chinaums2.1_20140929/configs/ME30/NDK_Sysdep_ME30.o
                0x0004af08                NDK_PortClose
 .text.NDK_PortRead
                0x0004af18       0x14 F:/Code/chinaums2.1_20140929/configs/ME30/NDK_Sysdep_ME30.o
                0x0004af18                NDK_PortRead
 .text.NDK_PortWrite
                0x0004af2c       0x14 F:/Code/chinaums2.1_20140929/configs/ME30/NDK_Sysdep_ME30.o
                0x0004af2c                NDK_PortWrite
 .text.NDK_PortTxSendOver
                0x0004af40       0x14 F:/Code/chinaums2.1_20140929/configs/ME30/NDK_Sysdep_ME30.o
                0x0004af40                NDK_PortTxSendOver
 .text.NDK_PortClrBuf
                0x0004af54       0x14 F:/Code/chinaums2.1_20140929/configs/ME30/NDK_Sysdep_ME30.o
                0x0004af54                NDK_PortClrBuf
 .text.NDK_PortReadLen
                0x0004af68       0x14 F:/Code/chinaums2.1_20140929/configs/ME30/NDK_Sysdep_ME30.o
                0x0004af68                NDK_PortReadLen
 .text.NDK_IccGetVersion
                0x0004af7c       0x14 F:/Code/chinaums2.1_20140929/configs/ME30/NDK_Sysdep_ME30.o
                0x0004af7c                NDK_IccGetVersion
 .text.NDK_IccDetect
                0x0004af90       0x14 F:/Code/chinaums2.1_20140929/configs/ME30/NDK_Sysdep_ME30.o
                0x0004af90                NDK_IccDetect
 .text.NDK_IccPowerUp
                0x0004afa4       0x14 F:/Code/chinaums2.1_20140929/configs/ME30/NDK_Sysdep_ME30.o
                0x0004afa4                NDK_IccPowerUp
 .text.NDK_IccPowerDown
                0x0004afb8       0x14 F:/Code/chinaums2.1_20140929/configs/ME30/NDK_Sysdep_ME30.o
                0x0004afb8                NDK_IccPowerDown
 .text.NDK_Iccrw
                0x0004afcc       0x18 F:/Code/chinaums2.1_20140929/configs/ME30/NDK_Sysdep_ME30.o
                0x0004afcc                NDK_Iccrw
 .text.NDK_MagOpen
                0x0004afe4       0x14 F:/Code/chinaums2.1_20140929/configs/ME30/NDK_Sysdep_ME30.o
                0x0004afe4                NDK_MagOpen
 .text.NDK_MagClose
                0x0004aff8       0x14 F:/Code/chinaums2.1_20140929/configs/ME30/NDK_Sysdep_ME30.o
                0x0004aff8                NDK_MagClose
 .text.NDK_MagReset
                0x0004b00c       0x14 F:/Code/chinaums2.1_20140929/configs/ME30/NDK_Sysdep_ME30.o
                0x0004b00c                NDK_MagReset
 .text.NDK_MagSwiped
                0x0004b020       0x14 F:/Code/chinaums2.1_20140929/configs/ME30/NDK_Sysdep_ME30.o
                0x0004b020                NDK_MagSwiped
 .text.NDK_MagReadNormal
                0x0004b034       0x14 F:/Code/chinaums2.1_20140929/configs/ME30/NDK_Sysdep_ME30.o
                0x0004b034                NDK_MagReadNormal
 .text.NDK_FsOpen
                0x0004b048       0x14 F:/Code/chinaums2.1_20140929/configs/ME30/NDK_Sysdep_ME30.o
                0x0004b048                NDK_FsOpen
 .text.NDK_FsClose
                0x0004b05c       0x14 F:/Code/chinaums2.1_20140929/configs/ME30/NDK_Sysdep_ME30.o
                0x0004b05c                NDK_FsClose
 .text.NDK_FsRead
                0x0004b070       0x14 F:/Code/chinaums2.1_20140929/configs/ME30/NDK_Sysdep_ME30.o
                0x0004b070                NDK_FsRead
 .text.NDK_FsWrite
                0x0004b084       0x14 F:/Code/chinaums2.1_20140929/configs/ME30/NDK_Sysdep_ME30.o
                0x0004b084                NDK_FsWrite
 .text.NDK_FsSeek
                0x0004b098       0x14 F:/Code/chinaums2.1_20140929/configs/ME30/NDK_Sysdep_ME30.o
                0x0004b098                NDK_FsSeek
 .text.NDK_FsDel
                0x0004b0ac       0x14 F:/Code/chinaums2.1_20140929/configs/ME30/NDK_Sysdep_ME30.o
                0x0004b0ac                NDK_FsDel
 .text.NDK_FsFileSize
                0x0004b0c0       0x14 F:/Code/chinaums2.1_20140929/configs/ME30/NDK_Sysdep_ME30.o
                0x0004b0c0                NDK_FsFileSize
 .text.NDK_FsExist
                0x0004b0d4       0x14 F:/Code/chinaums2.1_20140929/configs/ME30/NDK_Sysdep_ME30.o
                0x0004b0d4                NDK_FsExist
 .text.NDK_FsTruncate
                0x0004b0e8       0x14 F:/Code/chinaums2.1_20140929/configs/ME30/NDK_Sysdep_ME30.o
                0x0004b0e8                NDK_FsTruncate
 .text.NDK_FsTell
                0x0004b0fc       0x14 F:/Code/chinaums2.1_20140929/configs/ME30/NDK_Sysdep_ME30.o
                0x0004b0fc                NDK_FsTell
 .text.NDK_FsRename
                0x0004b110       0x14 F:/Code/chinaums2.1_20140929/configs/ME30/NDK_Sysdep_ME30.o
                0x0004b110                NDK_FsRename
 .text.NDK_FsFormat
                0x0004b124       0x14 F:/Code/chinaums2.1_20140929/configs/ME30/NDK_Sysdep_ME30.o
                0x0004b124                NDK_FsFormat
 .text.NDK_Getlibver
                0x0004b138       0x14 F:/Code/chinaums2.1_20140929/configs/ME30/NDK_Sysdep_ME30.o
                0x0004b138                NDK_Getlibver
 .text.NDK_SysDelay
                0x0004b14c       0x14 F:/Code/chinaums2.1_20140929/configs/ME30/NDK_Sysdep_ME30.o
                0x0004b14c                NDK_SysDelay
 .text.NDK_SysMsDelay
                0x0004b160       0x14 F:/Code/chinaums2.1_20140929/configs/ME30/NDK_Sysdep_ME30.o
                0x0004b160                NDK_SysMsDelay
 .text.NDK_SysReboot
                0x0004b174       0x14 F:/Code/chinaums2.1_20140929/configs/ME30/NDK_Sysdep_ME30.o
                0x0004b174                NDK_SysReboot
 .text.NDK_SysShutDown
                0x0004b188       0x14 F:/Code/chinaums2.1_20140929/configs/ME30/NDK_Sysdep_ME30.o
                0x0004b188                NDK_SysShutDown
 .text.NDK_SysBeep
                0x0004b19c       0x14 F:/Code/chinaums2.1_20140929/configs/ME30/NDK_Sysdep_ME30.o
                0x0004b19c                NDK_SysBeep
 .text.NDK_SysGoSuspend
                0x0004b1b0       0x14 F:/Code/chinaums2.1_20140929/configs/ME30/NDK_Sysdep_ME30.o
                0x0004b1b0                NDK_SysGoSuspend
 .text.NDK_SysGetPowerVol
                0x0004b1c4       0x14 F:/Code/chinaums2.1_20140929/configs/ME30/NDK_Sysdep_ME30.o
                0x0004b1c4                NDK_SysGetPowerVol
 .text.NDK_SysSetPosTime
                0x0004b1d8       0x34 F:/Code/chinaums2.1_20140929/configs/ME30/NDK_Sysdep_ME30.o
                0x0004b1d8                NDK_SysSetPosTime
 .text.NDK_SysGetPosTime
                0x0004b20c       0x14 F:/Code/chinaums2.1_20140929/configs/ME30/NDK_Sysdep_ME30.o
                0x0004b20c                NDK_SysGetPosTime
 .text.NDK_LedStatus
                0x0004b220       0x14 F:/Code/chinaums2.1_20140929/configs/ME30/NDK_Sysdep_ME30.o
                0x0004b220                NDK_LedStatus
 .text.NDK_SysStartWatch
                0x0004b234       0x14 F:/Code/chinaums2.1_20140929/configs/ME30/NDK_Sysdep_ME30.o
                0x0004b234                NDK_SysStartWatch
 .text.NDK_SysReadWatch
                0x0004b248       0x14 F:/Code/chinaums2.1_20140929/configs/ME30/NDK_Sysdep_ME30.o
                0x0004b248                NDK_SysReadWatch
 .text.NDK_SysStopWatch
                0x0004b25c       0x14 F:/Code/chinaums2.1_20140929/configs/ME30/NDK_Sysdep_ME30.o
                0x0004b25c                NDK_SysStopWatch
 .text.NDK_SysTimeBeep
                0x0004b270       0x14 F:/Code/chinaums2.1_20140929/configs/ME30/NDK_Sysdep_ME30.o
                0x0004b270                NDK_SysTimeBeep
 .text.NDK_SysGetConfigInfo
                0x0004b284       0x14 F:/Code/chinaums2.1_20140929/configs/ME30/NDK_Sysdep_ME30.o
                0x0004b284                NDK_SysGetConfigInfo
 .text.NDK_SysGetPosInfo
                0x0004b298       0x14 F:/Code/chinaums2.1_20140929/configs/ME30/NDK_Sysdep_ME30.o
                0x0004b298                NDK_SysGetPosInfo
 .text.NDK_SysGetPowerVolRange
                0x0004b2ac       0x14 F:/Code/chinaums2.1_20140929/configs/ME30/NDK_Sysdep_ME30.o
                0x0004b2ac                NDK_SysGetPowerVolRange
 .text.NDK_SysSetPosInfo
                0x0004b2c0       0x14 F:/Code/chinaums2.1_20140929/configs/ME30/NDK_Sysdep_ME30.o
                0x0004b2c0                NDK_SysSetPosInfo
 .text.NDK_SysSetShutdownDelay
                0x0004b2d4       0x14 F:/Code/chinaums2.1_20140929/configs/ME30/NDK_Sysdep_ME30.o
                0x0004b2d4                NDK_SysSetShutdownDelay
 .text.NDK_AppRun
                0x0004b2e8       0x14 F:/Code/chinaums2.1_20140929/configs/ME30/NDK_Sysdep_ME30.o
                0x0004b2e8                NDK_AppRun
 .text.NDK_LibLoad
                0x0004b2fc       0x14 F:/Code/chinaums2.1_20140929/configs/ME30/NDK_Sysdep_ME30.o
                0x0004b2fc                NDK_LibLoad
 .text.NDK_AppLoad
                0x0004b310       0x14 F:/Code/chinaums2.1_20140929/configs/ME30/NDK_Sysdep_ME30.o
                0x0004b310                NDK_AppLoad
 .text.NDK_AddDigitStr
                0x0004b324       0x14 F:/Code/chinaums2.1_20140929/configs/ME30/NDK_Sysdep_ME30.o
                0x0004b324                NDK_AddDigitStr
 .text.NDK_IncNum
                0x0004b338       0x14 F:/Code/chinaums2.1_20140929/configs/ME30/NDK_Sysdep_ME30.o
                0x0004b338                NDK_IncNum
 .text.NDK_FmtAmtStr
                0x0004b34c       0x14 F:/Code/chinaums2.1_20140929/configs/ME30/NDK_Sysdep_ME30.o
                0x0004b34c                NDK_FmtAmtStr
 .text.NDK_AscToHex
                0x0004b360       0x14 F:/Code/chinaums2.1_20140929/configs/ME30/NDK_Sysdep_ME30.o
                0x0004b360                NDK_AscToHex
 .text.NDK_HexToAsc
                0x0004b374       0x14 F:/Code/chinaums2.1_20140929/configs/ME30/NDK_Sysdep_ME30.o
                0x0004b374                NDK_HexToAsc
 .text.NDK_IntToC4
                0x0004b388       0x14 F:/Code/chinaums2.1_20140929/configs/ME30/NDK_Sysdep_ME30.o
                0x0004b388                NDK_IntToC4
 .text.NDK_IntToC2
                0x0004b39c       0x14 F:/Code/chinaums2.1_20140929/configs/ME30/NDK_Sysdep_ME30.o
                0x0004b39c                NDK_IntToC2
 .text.NDK_C4ToInt
                0x0004b3b0       0x14 F:/Code/chinaums2.1_20140929/configs/ME30/NDK_Sysdep_ME30.o
                0x0004b3b0                NDK_C4ToInt
 .text.NDK_C2ToInt
                0x0004b3c4       0x14 F:/Code/chinaums2.1_20140929/configs/ME30/NDK_Sysdep_ME30.o
                0x0004b3c4                NDK_C2ToInt
 .text.NDK_ByteToBcd
                0x0004b3d8       0x14 F:/Code/chinaums2.1_20140929/configs/ME30/NDK_Sysdep_ME30.o
                0x0004b3d8                NDK_ByteToBcd
 .text.NDK_BcdToByte
                0x0004b3ec       0x14 F:/Code/chinaums2.1_20140929/configs/ME30/NDK_Sysdep_ME30.o
                0x0004b3ec                NDK_BcdToByte
 .text.NDK_IntToBcd
                0x0004b400       0x14 F:/Code/chinaums2.1_20140929/configs/ME30/NDK_Sysdep_ME30.o
                0x0004b400                NDK_IntToBcd
 .text.NDK_BcdToInt
                0x0004b414       0x14 F:/Code/chinaums2.1_20140929/configs/ME30/NDK_Sysdep_ME30.o
                0x0004b414                NDK_BcdToInt
 .text.NDK_CalcLRC
                0x0004b428       0x14 F:/Code/chinaums2.1_20140929/configs/ME30/NDK_Sysdep_ME30.o
                0x0004b428                NDK_CalcLRC
 .text.NDK_LeftTrim
                0x0004b43c       0x14 F:/Code/chinaums2.1_20140929/configs/ME30/NDK_Sysdep_ME30.o
                0x0004b43c                NDK_LeftTrim
 .text.NDK_RightTrim
                0x0004b450       0x14 F:/Code/chinaums2.1_20140929/configs/ME30/NDK_Sysdep_ME30.o
                0x0004b450                NDK_RightTrim
 .text.NDK_AllTrim
                0x0004b464       0x14 F:/Code/chinaums2.1_20140929/configs/ME30/NDK_Sysdep_ME30.o
                0x0004b464                NDK_AllTrim
 .text.NDK_AddSymbolToStr
                0x0004b478       0x14 F:/Code/chinaums2.1_20140929/configs/ME30/NDK_Sysdep_ME30.o
                0x0004b478                NDK_AddSymbolToStr
 .text.NDK_SubStr
                0x0004b48c       0x18 F:/Code/chinaums2.1_20140929/configs/ME30/NDK_Sysdep_ME30.o
                0x0004b48c                NDK_SubStr
 .text.NDK_IsDigitChar
                0x0004b4a4       0x14 F:/Code/chinaums2.1_20140929/configs/ME30/NDK_Sysdep_ME30.o
                0x0004b4a4                NDK_IsDigitChar
 .text.NDK_IsDigitStr
                0x0004b4b8       0x14 F:/Code/chinaums2.1_20140929/configs/ME30/NDK_Sysdep_ME30.o
                0x0004b4b8                NDK_IsDigitStr
 .text.NDK_IsLeapYear
                0x0004b4cc       0x14 F:/Code/chinaums2.1_20140929/configs/ME30/NDK_Sysdep_ME30.o
                0x0004b4cc                NDK_IsLeapYear
 .text.NDK_MonthDays
                0x0004b4e0       0x14 F:/Code/chinaums2.1_20140929/configs/ME30/NDK_Sysdep_ME30.o
                0x0004b4e0                NDK_MonthDays
 .text.NDK_IsValidDate
                0x0004b4f4       0x14 F:/Code/chinaums2.1_20140929/configs/ME30/NDK_Sysdep_ME30.o
                0x0004b4f4                NDK_IsValidDate
 .text.NDK_BTReset
                0x0004b508       0x14 F:/Code/chinaums2.1_20140929/configs/ME30/NDK_Sysdep_ME30.o
                0x0004b508                NDK_BTReset
 .text.NDK_BTGetLocalName
                0x0004b51c       0x14 F:/Code/chinaums2.1_20140929/configs/ME30/NDK_Sysdep_ME30.o
                0x0004b51c                NDK_BTGetLocalName
 .text.NDK_BTEnterCommand
                0x0004b530       0x14 F:/Code/chinaums2.1_20140929/configs/ME30/NDK_Sysdep_ME30.o
                0x0004b530                NDK_BTEnterCommand
 .text.NDK_BTExitCommand
                0x0004b544       0x14 F:/Code/chinaums2.1_20140929/configs/ME30/NDK_Sysdep_ME30.o
                0x0004b544                NDK_BTExitCommand
 .text.NDK_BTGetLocalMAC
                0x0004b558       0x14 F:/Code/chinaums2.1_20140929/configs/ME30/NDK_Sysdep_ME30.o
                0x0004b558                NDK_BTGetLocalMAC
 .text.NDK_BTGetPIN
                0x0004b56c       0x14 F:/Code/chinaums2.1_20140929/configs/ME30/NDK_Sysdep_ME30.o
                0x0004b56c                NDK_BTGetPIN
 .text.NDK_BTSetLocalName
                0x0004b580       0x14 F:/Code/chinaums2.1_20140929/configs/ME30/NDK_Sysdep_ME30.o
                0x0004b580                NDK_BTSetLocalName
 .text.NDK_BTSetPIN
                0x0004b594       0x14 F:/Code/chinaums2.1_20140929/configs/ME30/NDK_Sysdep_ME30.o
                0x0004b594                NDK_BTSetPIN
 .text.NDK_BTStatus
                0x0004b5a8       0x14 F:/Code/chinaums2.1_20140929/configs/ME30/NDK_Sysdep_ME30.o
                0x0004b5a8                NDK_BTStatus
 .text.NDK_BTDisconnect
                0x0004b5bc       0x14 F:/Code/chinaums2.1_20140929/configs/ME30/NDK_Sysdep_ME30.o
                0x0004b5bc                NDK_BTDisconnect
 .text.open     0x0004b5d0       0x1c F:/Code/chinaums2.1_20140929/configs/ME30/NDK_Sysdep_ME30.o
                0x0004b5d0                open
 .text.close    0x0004b5ec       0x10 F:/Code/chinaums2.1_20140929/configs/ME30/NDK_Sysdep_ME30.o
                0x0004b5ec                close
 .text.read     0x0004b5fc       0x10 F:/Code/chinaums2.1_20140929/configs/ME30/NDK_Sysdep_ME30.o
                0x0004b5fc                read
 .text.write    0x0004b60c       0x10 F:/Code/chinaums2.1_20140929/configs/ME30/NDK_Sysdep_ME30.o
                0x0004b60c                write
 .text.select   0x0004b61c       0x14 F:/Code/chinaums2.1_20140929/configs/ME30/NDK_Sysdep_ME30.o
                0x0004b61c                select
 .text.unlink   0x0004b630       0x10 F:/Code/chinaums2.1_20140929/configs/ME30/NDK_Sysdep_ME30.o
                0x0004b630                unlink
 .text.ioctl    0x0004b640       0x10 F:/Code/chinaums2.1_20140929/configs/ME30/NDK_Sysdep_ME30.o
                0x0004b640                ioctl
 .text.lseek    0x0004b650       0x10 F:/Code/chinaums2.1_20140929/configs/ME30/NDK_Sysdep_ME30.o
                0x0004b650                lseek
 .text.NDK_RfidVersion
                0x0004b660       0x14 F:/Code/chinaums2.1_20140929/configs/ME30/NDK_Sysdep_ME30.o
                0x0004b660                NDK_RfidVersion
 .text.NDK_RfidInit
                0x0004b674       0x14 F:/Code/chinaums2.1_20140929/configs/ME30/NDK_Sysdep_ME30.o
                0x0004b674                NDK_RfidInit
 .text.NDK_RfidOpenRf
                0x0004b688       0x14 F:/Code/chinaums2.1_20140929/configs/ME30/NDK_Sysdep_ME30.o
                0x0004b688                NDK_RfidOpenRf
 .text.NDK_RfidCloseRf
                0x0004b69c       0x14 F:/Code/chinaums2.1_20140929/configs/ME30/NDK_Sysdep_ME30.o
                0x0004b69c                NDK_RfidCloseRf
 .text.NDK_RfidPiccState
                0x0004b6b0       0x14 F:/Code/chinaums2.1_20140929/configs/ME30/NDK_Sysdep_ME30.o
                0x0004b6b0                NDK_RfidPiccState
 .text.NDK_RfidSuspend
                0x0004b6c4       0x14 F:/Code/chinaums2.1_20140929/configs/ME30/NDK_Sysdep_ME30.o
                0x0004b6c4                NDK_RfidSuspend
 .text.NDK_RfidResume
                0x0004b6d8       0x14 F:/Code/chinaums2.1_20140929/configs/ME30/NDK_Sysdep_ME30.o
                0x0004b6d8                NDK_RfidResume
 .text.NDK_RfidPiccType
                0x0004b6ec       0x14 F:/Code/chinaums2.1_20140929/configs/ME30/NDK_Sysdep_ME30.o
                0x0004b6ec                NDK_RfidPiccType
 .text.NDK_RfidPiccDetect
                0x0004b700       0x14 F:/Code/chinaums2.1_20140929/configs/ME30/NDK_Sysdep_ME30.o
                0x0004b700                NDK_RfidPiccDetect
 .text.NDK_RfidPiccActivate
                0x0004b714       0x14 F:/Code/chinaums2.1_20140929/configs/ME30/NDK_Sysdep_ME30.o
                0x0004b714                NDK_RfidPiccActivate
 .text.NDK_RfidPiccDeactivate
                0x0004b728       0x14 F:/Code/chinaums2.1_20140929/configs/ME30/NDK_Sysdep_ME30.o
                0x0004b728                NDK_RfidPiccDeactivate
 .text.NDK_RfidPiccApdu
                0x0004b73c       0x14 F:/Code/chinaums2.1_20140929/configs/ME30/NDK_Sysdep_ME30.o
                0x0004b73c                NDK_RfidPiccApdu
 .text.NDK_M1Request
                0x0004b750       0x14 F:/Code/chinaums2.1_20140929/configs/ME30/NDK_Sysdep_ME30.o
                0x0004b750                NDK_M1Request
 .text.NDK_M1Anti
                0x0004b764       0x14 F:/Code/chinaums2.1_20140929/configs/ME30/NDK_Sysdep_ME30.o
                0x0004b764                NDK_M1Anti
 .text.NDK_M1Select
                0x0004b778       0x14 F:/Code/chinaums2.1_20140929/configs/ME30/NDK_Sysdep_ME30.o
                0x0004b778                NDK_M1Select
 .text.NDK_M1KeyStore
                0x0004b78c       0x14 F:/Code/chinaums2.1_20140929/configs/ME30/NDK_Sysdep_ME30.o
                0x0004b78c                NDK_M1KeyStore
 .text.NDK_M1KeyLoad
                0x0004b7a0       0x14 F:/Code/chinaums2.1_20140929/configs/ME30/NDK_Sysdep_ME30.o
                0x0004b7a0                NDK_M1KeyLoad
 .text.NDK_M1InternalAuthen
                0x0004b7b4       0x14 F:/Code/chinaums2.1_20140929/configs/ME30/NDK_Sysdep_ME30.o
                0x0004b7b4                NDK_M1InternalAuthen
 .text.NDK_M1ExternalAuthen
                0x0004b7c8       0x18 F:/Code/chinaums2.1_20140929/configs/ME30/NDK_Sysdep_ME30.o
                0x0004b7c8                NDK_M1ExternalAuthen
 .text.NDK_M1Read
                0x0004b7e0       0x14 F:/Code/chinaums2.1_20140929/configs/ME30/NDK_Sysdep_ME30.o
                0x0004b7e0                NDK_M1Read
 .text.NDK_M1Write
                0x0004b7f4       0x14 F:/Code/chinaums2.1_20140929/configs/ME30/NDK_Sysdep_ME30.o
                0x0004b7f4                NDK_M1Write
 .text.NDK_M1Increment
                0x0004b808       0x14 F:/Code/chinaums2.1_20140929/configs/ME30/NDK_Sysdep_ME30.o
                0x0004b808                NDK_M1Increment
 .text.NDK_M1Decrement
                0x0004b81c       0x14 F:/Code/chinaums2.1_20140929/configs/ME30/NDK_Sysdep_ME30.o
                0x0004b81c                NDK_M1Decrement
 .text.NDK_M1Transfer
                0x0004b830       0x14 F:/Code/chinaums2.1_20140929/configs/ME30/NDK_Sysdep_ME30.o
                0x0004b830                NDK_M1Transfer
 .text.NDK_M1Restore
                0x0004b844       0x14 F:/Code/chinaums2.1_20140929/configs/ME30/NDK_Sysdep_ME30.o
                0x0004b844                NDK_M1Restore
 .text.NDK_M1halt
                0x0004b858       0x14 F:/Code/chinaums2.1_20140929/configs/ME30/NDK_Sysdep_ME30.o
                0x0004b858                NDK_M1halt
 .text.NDK_PiccQuickRequest
                0x0004b86c       0x14 F:/Code/chinaums2.1_20140929/configs/ME30/NDK_Sysdep_ME30.o
                0x0004b86c                NDK_PiccQuickRequest
 .text.NDK_SetIgnoreProtocol
                0x0004b880       0x14 F:/Code/chinaums2.1_20140929/configs/ME30/NDK_Sysdep_ME30.o
                0x0004b880                NDK_SetIgnoreProtocol
 .text.NDK_GetIgnoreProtocol
                0x0004b894       0x14 F:/Code/chinaums2.1_20140929/configs/ME30/NDK_Sysdep_ME30.o
                0x0004b894                NDK_GetIgnoreProtocol
 .text.NDK_GetRfidType
                0x0004b8a8       0x14 F:/Code/chinaums2.1_20140929/configs/ME30/NDK_Sysdep_ME30.o
                0x0004b8a8                NDK_GetRfidType
 .text.NDK_AlgTDes
                0x0004b8bc       0x18 F:/Code/chinaums2.1_20140929/configs/ME30/NDK_Sysdep_ME30.o
                0x0004b8bc                NDK_AlgTDes
 .text.NDK_AlgSHA1
                0x0004b8d4       0x14 F:/Code/chinaums2.1_20140929/configs/ME30/NDK_Sysdep_ME30.o
                0x0004b8d4                NDK_AlgSHA1
 .text.NDK_AlgSHA256
                0x0004b8e8       0x14 F:/Code/chinaums2.1_20140929/configs/ME30/NDK_Sysdep_ME30.o
                0x0004b8e8                NDK_AlgSHA256
 .text.NDK_SecGetRandom
                0x0004b8fc       0x14 F:/Code/chinaums2.1_20140929/configs/ME30/NDK_Sysdep_ME30.o
                0x0004b8fc                NDK_SecGetRandom
 .text.NDK_SecGetVer
                0x0004b910       0x14 F:/Code/chinaums2.1_20140929/configs/ME30/NDK_Sysdep_ME30.o
                0x0004b910                NDK_SecGetVer
 .text.NDK_SecSetCfg
                0x0004b924       0x14 F:/Code/chinaums2.1_20140929/configs/ME30/NDK_Sysdep_ME30.o
                0x0004b924                NDK_SecSetCfg
 .text.NDK_SecGetCfg
                0x0004b938       0x14 F:/Code/chinaums2.1_20140929/configs/ME30/NDK_Sysdep_ME30.o
                0x0004b938                NDK_SecGetCfg
 .text.NDK_SecGetKcv
                0x0004b94c       0x14 F:/Code/chinaums2.1_20140929/configs/ME30/NDK_Sysdep_ME30.o
                0x0004b94c                NDK_SecGetKcv
 .text.NDK_SecKeyErase
                0x0004b960       0x14 F:/Code/chinaums2.1_20140929/configs/ME30/NDK_Sysdep_ME30.o
                0x0004b960                NDK_SecKeyErase
 .text.NDK_SecLoadKey
                0x0004b974       0x14 F:/Code/chinaums2.1_20140929/configs/ME30/NDK_Sysdep_ME30.o
                0x0004b974                NDK_SecLoadKey
 .text.NDK_SecSetIntervaltime
                0x0004b988       0x14 F:/Code/chinaums2.1_20140929/configs/ME30/NDK_Sysdep_ME30.o
                0x0004b988                NDK_SecSetIntervaltime
 .text.NDK_SecSetFunctionKey
                0x0004b99c       0x14 F:/Code/chinaums2.1_20140929/configs/ME30/NDK_Sysdep_ME30.o
                0x0004b99c                NDK_SecSetFunctionKey
 .text.NDK_SecGetMac
                0x0004b9b0       0x18 F:/Code/chinaums2.1_20140929/configs/ME30/NDK_Sysdep_ME30.o
                0x0004b9b0                NDK_SecGetMac
 .text.NDK_SecGetPin
                0x0004b9c8       0x1c F:/Code/chinaums2.1_20140929/configs/ME30/NDK_Sysdep_ME30.o
                0x0004b9c8                NDK_SecGetPin
 .text.NDK_SecCalcDes
                0x0004b9e4       0x1c F:/Code/chinaums2.1_20140929/configs/ME30/NDK_Sysdep_ME30.o
                0x0004b9e4                NDK_SecCalcDes
 .text.NDK_SecVerifyPlainPin
                0x0004ba00       0x18 F:/Code/chinaums2.1_20140929/configs/ME30/NDK_Sysdep_ME30.o
                0x0004ba00                NDK_SecVerifyPlainPin
 .text.NDK_SecVerifyCipherPin
                0x0004ba18       0x1c F:/Code/chinaums2.1_20140929/configs/ME30/NDK_Sysdep_ME30.o
                0x0004ba18                NDK_SecVerifyCipherPin
 .text.NDK_SecLoadTIK
                0x0004ba34       0x1c F:/Code/chinaums2.1_20140929/configs/ME30/NDK_Sysdep_ME30.o
                0x0004ba34                NDK_SecLoadTIK
 .text.NDK_SecGetDukptKsn
                0x0004ba50       0x14 F:/Code/chinaums2.1_20140929/configs/ME30/NDK_Sysdep_ME30.o
                0x0004ba50                NDK_SecGetDukptKsn
 .text.NDK_SecIncreaseDukptKsn
                0x0004ba64       0x14 F:/Code/chinaums2.1_20140929/configs/ME30/NDK_Sysdep_ME30.o
                0x0004ba64                NDK_SecIncreaseDukptKsn
 .text.NDK_SecGetPinDukpt
                0x0004ba78       0x24 F:/Code/chinaums2.1_20140929/configs/ME30/NDK_Sysdep_ME30.o
                0x0004ba78                NDK_SecGetPinDukpt
 .text.NDK_SecGetMacDukpt
                0x0004ba9c       0x1c F:/Code/chinaums2.1_20140929/configs/ME30/NDK_Sysdep_ME30.o
                0x0004ba9c                NDK_SecGetMacDukpt
 .text.NDK_SecCalcDesDukpt
                0x0004bab8       0x28 F:/Code/chinaums2.1_20140929/configs/ME30/NDK_Sysdep_ME30.o
                0x0004bab8                NDK_SecCalcDesDukpt
 .text.NDK_SecLoadRsaKey
                0x0004bae0       0x14 F:/Code/chinaums2.1_20140929/configs/ME30/NDK_Sysdep_ME30.o
                0x0004bae0                NDK_SecLoadRsaKey
 .text.NDK_SecRecover
                0x0004baf4       0x14 F:/Code/chinaums2.1_20140929/configs/ME30/NDK_Sysdep_ME30.o
                0x0004baf4                NDK_SecRecover
 .text.NDK_SecGetPinResult
                0x0004bb08       0x14 F:/Code/chinaums2.1_20140929/configs/ME30/NDK_Sysdep_ME30.o
                0x0004bb08                NDK_SecGetPinResult
 .text.NDK_SecSetKeyOwner
                0x0004bb1c       0x14 F:/Code/chinaums2.1_20140929/configs/ME30/NDK_Sysdep_ME30.o
                0x0004bb1c                NDK_SecSetKeyOwner
 .text.NDK_SecGetTamperStatus
                0x0004bb30       0x14 F:/Code/chinaums2.1_20140929/configs/ME30/NDK_Sysdep_ME30.o
                0x0004bb30                NDK_SecGetTamperStatus
 .text.NDK_SecGetPinResultDukpt
                0x0004bb44       0x14 F:/Code/chinaums2.1_20140929/configs/ME30/NDK_Sysdep_ME30.o
                0x0004bb44                NDK_SecGetPinResultDukpt
 .text.NDK_ScrDrawBitmapV
                0x0004bb58       0x18 F:/Code/chinaums2.1_20140929/configs/ME30/NDK_Sysdep_ME30.o
                0x0004bb58                NDK_ScrDrawBitmapV
 .text.NDK_RegisterTimerRoutine
                0x0004bb70       0x14 F:/Code/chinaums2.1_20140929/configs/ME30/NDK_Sysdep_ME30.o
                0x0004bb70                NDK_RegisterTimerRoutine
 .text.NDK_DeRegisterTimer
                0x0004bb84       0x14 F:/Code/chinaums2.1_20140929/configs/ME30/NDK_Sysdep_ME30.o
                0x0004bb84                NDK_DeRegisterTimer
 .text.NDK_PrnInit
                0x0004bb98       0x14 F:/Code/chinaums2.1_20140929/configs/ME30/NDK_Sysdep_ME30.o
                0x0004bb98                NDK_PrnInit
 .text.NDK_PrnStr
                0x0004bbac       0x14 F:/Code/chinaums2.1_20140929/configs/ME30/NDK_Sysdep_ME30.o
                0x0004bbac                NDK_PrnStr
 .text.NDK_PrnStart
                0x0004bbc0       0x14 F:/Code/chinaums2.1_20140929/configs/ME30/NDK_Sysdep_ME30.o
                0x0004bbc0                NDK_PrnStart
 .text.NDK_PrnImage
                0x0004bbd4       0x14 F:/Code/chinaums2.1_20140929/configs/ME30/NDK_Sysdep_ME30.o
                0x0004bbd4                NDK_PrnImage
 .text.NDK_PrnGetVersion
                0x0004bbe8       0x14 F:/Code/chinaums2.1_20140929/configs/ME30/NDK_Sysdep_ME30.o
                0x0004bbe8                NDK_PrnGetVersion
 .text.NDK_PrnSetFont
                0x0004bbfc       0x14 F:/Code/chinaums2.1_20140929/configs/ME30/NDK_Sysdep_ME30.o
                0x0004bbfc                NDK_PrnSetFont
 .text.NDK_PrnGetStatus
                0x0004bc10       0x14 F:/Code/chinaums2.1_20140929/configs/ME30/NDK_Sysdep_ME30.o
                0x0004bc10                NDK_PrnGetStatus
 .text.NDK_PrnSetMode
                0x0004bc24       0x14 F:/Code/chinaums2.1_20140929/configs/ME30/NDK_Sysdep_ME30.o
                0x0004bc24                NDK_PrnSetMode
 .text.NDK_PrnSetGreyScale
                0x0004bc38       0x14 F:/Code/chinaums2.1_20140929/configs/ME30/NDK_Sysdep_ME30.o
                0x0004bc38                NDK_PrnSetGreyScale
 .text.NDK_PrnSetForm
                0x0004bc4c       0x14 F:/Code/chinaums2.1_20140929/configs/ME30/NDK_Sysdep_ME30.o
                0x0004bc4c                NDK_PrnSetForm
 .text.NDK_PrnFeedByPixel
                0x0004bc60       0x14 F:/Code/chinaums2.1_20140929/configs/ME30/NDK_Sysdep_ME30.o
                0x0004bc60                NDK_PrnFeedByPixel
 .text.NDK_PrnSetUnderLine
                0x0004bc74       0x14 F:/Code/chinaums2.1_20140929/configs/ME30/NDK_Sysdep_ME30.o
                0x0004bc74                NDK_PrnSetUnderLine
 .text.NDK_PrnFontRegister
                0x0004bc88       0x14 F:/Code/chinaums2.1_20140929/configs/ME30/NDK_Sysdep_ME30.o
                0x0004bc88                NDK_PrnFontRegister
 .text.NDK_PrnSetUsrFont
                0x0004bc9c       0x14 F:/Code/chinaums2.1_20140929/configs/ME30/NDK_Sysdep_ME30.o
                0x0004bc9c                NDK_PrnSetUsrFont
 .text.NDK_PrnGetDotLine
                0x0004bcb0       0x14 F:/Code/chinaums2.1_20140929/configs/ME30/NDK_Sysdep_ME30.o
                0x0004bcb0                NDK_PrnGetDotLine
 .text.NDK_PrnPicture
                0x0004bcc4       0x14 F:/Code/chinaums2.1_20140929/configs/ME30/NDK_Sysdep_ME30.o
                0x0004bcc4                NDK_PrnPicture
 .text.NDK_PrnSetPageLen
                0x0004bcd8       0x14 F:/Code/chinaums2.1_20140929/configs/ME30/NDK_Sysdep_ME30.o
                0x0004bcd8                NDK_PrnSetPageLen
 .text.NDK_PrnLoadBDFFont
                0x0004bcec       0x14 F:/Code/chinaums2.1_20140929/configs/ME30/NDK_Sysdep_ME30.o
                0x0004bcec                NDK_PrnLoadBDFFont
 .text.NDK_PrnBDFStr
                0x0004bd00       0x14 F:/Code/chinaums2.1_20140929/configs/ME30/NDK_Sysdep_ME30.o
                0x0004bd00                NDK_PrnBDFStr
 .text.NDK_PrnSetBDF
                0x0004bd14       0x18 F:/Code/chinaums2.1_20140929/configs/ME30/NDK_Sysdep_ME30.o
                0x0004bd14                NDK_PrnSetBDF
 .text.NDK_AudioTXSel
                0x0004bd2c       0x14 F:/Code/chinaums2.1_20140929/configs/ME30/NDK_Sysdep_ME30.o
                0x0004bd2c                NDK_AudioTXSel
 .text.NDK_AudioTX_FreqSel
                0x0004bd40       0x14 F:/Code/chinaums2.1_20140929/configs/ME30/NDK_Sysdep_ME30.o
                0x0004bd40                NDK_AudioTX_FreqSel
 .text.NDK_KbGetPad
                0x0004bd54       0x14 F:/Code/chinaums2.1_20140929/configs/ME30/NDK_Sysdep_ME30.o
                0x0004bd54                NDK_KbGetPad
 .text.NDK_PlayVoice
                0x0004bd68       0x14 F:/Code/chinaums2.1_20140929/configs/ME30/NDK_Sysdep_ME30.o
                0x0004bd68                NDK_PlayVoice
 .text.NDK_SysEnterBoot
                0x0004bd7c       0x14 F:/Code/chinaums2.1_20140929/configs/ME30/NDK_Sysdep_ME30.o
                0x0004bd7c                NDK_SysEnterBoot
 .text.NDK_SysPeerOper
                0x0004bd90       0x14 F:/Code/chinaums2.1_20140929/configs/ME30/NDK_Sysdep_ME30.o
                0x0004bd90                NDK_SysPeerOper
 .text.startup  0x0004bda4        0xa F:\Code\chinaums2.1_20140929\build\common\ME30/cmd/cmd.o
                0x0004bda4                main
 .text.atoi     0x0004bdae        0x8 F:/Code/chinaums2.1_20140929/libs/libc_Cortex-M4_nofpu.a(atoi.o)
                0x0004bdae                atoi
 .text.memcmp   0x0004bdb6       0x1e F:/Code/chinaums2.1_20140929/libs/libc_Cortex-M4_nofpu.a(memcmp.o)
                0x0004bdb6                memcmp
 .text.memcpy   0x0004bdd4       0x12 F:/Code/chinaums2.1_20140929/libs/libc_Cortex-M4_nofpu.a(memcpy.o)
                0x0004bdd4                memcpy
 .text.memset   0x0004bde6       0x10 F:/Code/chinaums2.1_20140929/libs/libc_Cortex-M4_nofpu.a(memset.o)
                0x0004bde6                memset
 .text.putch    0x0004bdf6        0xa F:/Code/chinaums2.1_20140929/libs/libc_Cortex-M4_nofpu.a(sprintf.o)
 .text.vsprintf
                0x0004be00       0x20 F:/Code/chinaums2.1_20140929/libs/libc_Cortex-M4_nofpu.a(sprintf.o)
                0x0004be00                vsprintf
 .text.sprintf  0x0004be20       0x24 F:/Code/chinaums2.1_20140929/libs/libc_Cortex-M4_nofpu.a(sprintf.o)
                0x0004be20                sprintf
 .text.strchr   0x0004be44       0x18 F:/Code/chinaums2.1_20140929/libs/libc_Cortex-M4_nofpu.a(strchr.o)
                0x0004be44                strchr
 .text.strcmp   0x0004be5c       0x1a F:/Code/chinaums2.1_20140929/libs/libc_Cortex-M4_nofpu.a(strcmp.o)
                0x0004be5c                strcmp
 .text.strcpy   0x0004be76        0xe F:/Code/chinaums2.1_20140929/libs/libc_Cortex-M4_nofpu.a(strcpy.o)
                0x0004be76                strcpy
 .text.strlen   0x0004be84       0x10 F:/Code/chinaums2.1_20140929/libs/libc_Cortex-M4_nofpu.a(strlen.o)
                0x0004be84                strlen
 .text.__strtok_r
                0x0004be94       0x5e F:/Code/chinaums2.1_20140929/libs/libc_Cortex-M4_nofpu.a(strtok.o)
                0x0004be94                __strtok_r
 *fill*         0x0004bef2        0x2 
 .text.strtok   0x0004bef4        0xc F:/Code/chinaums2.1_20140929/libs/libc_Cortex-M4_nofpu.a(strtok.o)
                0x0004bef4                strtok
 .text.strtol   0x0004bf00       0xfc F:/Code/chinaums2.1_20140929/libs/libc_Cortex-M4_nofpu.a(strtol.o)
                0x0004bf00                strtol
 .text._doprntx
                0x0004bffc      0x418 F:/Code/chinaums2.1_20140929/libs/libc_Cortex-M4_nofpu.a(doprntx.o)
                0x0004bffc                _doprntx
 .text.memchr   0x0004c414        0xc F:/Code/chinaums2.1_20140929/libs/libc_Cortex-M4_nofpu.a(memchr.o)
                0x0004c414                memchr

.vfp11_veneer   0x0004c420        0x0
 .vfp11_veneer  0x00000000        0x0 linker stubs

.v4_bx          0x0004c420        0x0
 .v4_bx         0x00000000        0x0 linker stubs

.iplt           0x0004c420        0x0
 .iplt          0x00000000        0x0 F:/Code/chinaums2.1_20140929/configs/ME30/NDK_Sysdep_ME30.o

.rodata         0x0004c420     0x1bc4
 *(.rodata)
 .rodata        0x0004c420      0x548 F:\Code\chinaums2.1_20140929\build\common\ME30/api/api.o
                0x0004c420                bt_icon
                0x0004c430                clr_icon
                0x0004c440                bat_icon
                0x0004c91c                nlMpos_Command
 .rodata        0x0004c968       0xbc F:\Code\chinaums2.1_20140929\build\common\ME30/cmd/cmd.o
 .rodata        0x0004ca24      0x1ac F:\Code\chinaums2.1_20140929\build\common\ME30/app/app.o
                0x0004ca24                stCommItem
                0x0004ca90                stSysItem
                0x0004cad8                stFuncItem
                0x0004cb44                stPasswordItem
                0x0004cbbc                stMainItem
 *(.rodata*)
 .rodata.str1.1
                0x0004cbd0      0x598 F:\Code\chinaums2.1_20140929\build\common\ME30/api/api.o
                                0x5df (size before relaxing)
 .rodata.str1.1
                0x0004d168      0xccb F:\Code\chinaums2.1_20140929\build\common\ME30/cmd/cmd.o
                                0xde1 (size before relaxing)
 .rodata.str1.1
                0x0004de33       0x85 F:\Code\chinaums2.1_20140929\build\common\ME30/app/app.o
                                 0xa1 (size before relaxing)
 .rodata._ctype
                0x0004deb8      0x100 F:/Code/chinaums2.1_20140929/libs/libc_Cortex-M4_nofpu.a(ctype.o)
                0x0004deb8                _ctype
 .rodata.str1.1
                0x0004dfb8       0x29 F:/Code/chinaums2.1_20140929/libs/libc_Cortex-M4_nofpu.a(doprntx.o)
 *(.glue_7)
 .glue_7        0x00000000        0x0 linker stubs
 *(.glue_7t)
 .glue_7t       0x00000000        0x0 linker stubs
                0x0004dfe4                . = ALIGN (0x4)
 *fill*         0x0004dfe1        0x3 
                0x0004dfe4                _etext = .
                0x0004dfe4                _sidata = _etext

.rel.dyn        0x0004dfe4        0x0
 .rel.iplt      0x00000000        0x0 F:/Code/chinaums2.1_20140929/configs/ME30/NDK_Sysdep_ME30.o

.data           0x1fffe000        0xc load address 0x0004dfe4
                0x1fffe000                . = ALIGN (0x4)
                0x1fffe000                _sdata = .
 *(.data)
 .data          0x1fffe000        0x0 F:/Code/chinaums2.1_20140929/configs/ME30/NDK_Sysdep_ME30.o
 .data          0x1fffe000        0x4 F:\Code\chinaums2.1_20140929\build\common\ME30/api/api.o
                0x1fffe000                c_TParamPrint
                0x1fffe002                c_TParamTLV
 .data          0x1fffe004        0x0 F:\Code\chinaums2.1_20140929\build\common\ME30/cmd/cmd.o
 .data          0x1fffe004        0x8 F:\Code\chinaums2.1_20140929\build\common\ME30/app/app.o
                0x1fffe004                pszAppVer
                0x1fffe008                pszHello
 .data          0x1fffe00c        0x0 F:/Code/chinaums2.1_20140929/libs/libc_Cortex-M4_nofpu.a(atoi.o)
 .data          0x1fffe00c        0x0 F:/Code/chinaums2.1_20140929/libs/libc_Cortex-M4_nofpu.a(memcmp.o)
 .data          0x1fffe00c        0x0 F:/Code/chinaums2.1_20140929/libs/libc_Cortex-M4_nofpu.a(memcpy.o)
 .data          0x1fffe00c        0x0 F:/Code/chinaums2.1_20140929/libs/libc_Cortex-M4_nofpu.a(memset.o)
 .data          0x1fffe00c        0x0 F:/Code/chinaums2.1_20140929/libs/libc_Cortex-M4_nofpu.a(sprintf.o)
 .data          0x1fffe00c        0x0 F:/Code/chinaums2.1_20140929/libs/libc_Cortex-M4_nofpu.a(strchr.o)
 .data          0x1fffe00c        0x0 F:/Code/chinaums2.1_20140929/libs/libc_Cortex-M4_nofpu.a(strcmp.o)
 .data          0x1fffe00c        0x0 F:/Code/chinaums2.1_20140929/libs/libc_Cortex-M4_nofpu.a(strcpy.o)
 .data          0x1fffe00c        0x0 F:/Code/chinaums2.1_20140929/libs/libc_Cortex-M4_nofpu.a(strlen.o)
 .data          0x1fffe00c        0x0 F:/Code/chinaums2.1_20140929/libs/libc_Cortex-M4_nofpu.a(strtok.o)
 .data          0x1fffe00c        0x0 F:/Code/chinaums2.1_20140929/libs/libc_Cortex-M4_nofpu.a(strtol.o)
 .data          0x1fffe00c        0x0 F:/Code/chinaums2.1_20140929/libs/libc_Cortex-M4_nofpu.a(ctype.o)
 .data          0x1fffe00c        0x0 F:/Code/chinaums2.1_20140929/libs/libc_Cortex-M4_nofpu.a(doprntx.o)
 .data          0x1fffe00c        0x0 F:/Code/chinaums2.1_20140929/libs/libc_Cortex-M4_nofpu.a(memchr.o)
 *(.data.*)
                0x1fffe00c                . = ALIGN (0x4)
                0x1fffe00c                _edata = .

.igot.plt       0x1fffe00c        0x0 load address 0x0004dff0
 .igot.plt      0x00000000        0x0 F:/Code/chinaums2.1_20140929/configs/ME30/NDK_Sysdep_ME30.o

.bss            0x1fffe00c     0x196c load address 0x0004dff0
                0x1fffe00c                . = ALIGN (0x4)
                0x1fffe00c                _sbss = .
 *(.bss)
 .bss           0x1fffe00c        0x0 F:/Code/chinaums2.1_20140929/configs/ME30/NDK_Sysdep_ME30.o
 .bss           0x1fffe00c      0x5a8 F:\Code\chinaums2.1_20140929\build\common\ME30/api/api.o
                0x1fffe018                uszTlvBuf
                0x1fffe598                SysCountdownBreak
 .bss           0x1fffe5b4     0x13bc F:\Code\chinaums2.1_20140929\build\common\ME30/cmd/cmd.o
                0x1fffe5b4                g_me31conf
                0x1fffe6dc                g_METPEDCtl
                0x1fffe730                ME_Host_Command_Buf
                0x1fffef34                g_szPanCode
                0x1fffef54                g_ucMagSwiped
                0x1fffef55                g_szTrack2
                0x1ffff01d                g_szTrack1
                0x1ffff09d                g_szTrack3
                0x1ffff16c                g_macdata
 .bss           0x1ffff970        0x0 F:\Code\chinaums2.1_20140929\build\common\ME30/app/app.o
 .bss           0x1ffff970        0x0 F:/Code/chinaums2.1_20140929/libs/libc_Cortex-M4_nofpu.a(atoi.o)
 .bss           0x1ffff970        0x0 F:/Code/chinaums2.1_20140929/libs/libc_Cortex-M4_nofpu.a(memcmp.o)
 .bss           0x1ffff970        0x0 F:/Code/chinaums2.1_20140929/libs/libc_Cortex-M4_nofpu.a(memcpy.o)
 .bss           0x1ffff970        0x0 F:/Code/chinaums2.1_20140929/libs/libc_Cortex-M4_nofpu.a(memset.o)
 .bss           0x1ffff970        0x0 F:/Code/chinaums2.1_20140929/libs/libc_Cortex-M4_nofpu.a(sprintf.o)
 .bss           0x1ffff970        0x0 F:/Code/chinaums2.1_20140929/libs/libc_Cortex-M4_nofpu.a(strchr.o)
 .bss           0x1ffff970        0x0 F:/Code/chinaums2.1_20140929/libs/libc_Cortex-M4_nofpu.a(strcmp.o)
 .bss           0x1ffff970        0x0 F:/Code/chinaums2.1_20140929/libs/libc_Cortex-M4_nofpu.a(strcpy.o)
 .bss           0x1ffff970        0x0 F:/Code/chinaums2.1_20140929/libs/libc_Cortex-M4_nofpu.a(strlen.o)
 .bss           0x1ffff970        0x0 F:/Code/chinaums2.1_20140929/libs/libc_Cortex-M4_nofpu.a(strtok.o)
 .bss           0x1ffff970        0x0 F:/Code/chinaums2.1_20140929/libs/libc_Cortex-M4_nofpu.a(strtol.o)
 .bss           0x1ffff970        0x0 F:/Code/chinaums2.1_20140929/libs/libc_Cortex-M4_nofpu.a(ctype.o)
 .bss           0x1ffff970        0x0 F:/Code/chinaums2.1_20140929/libs/libc_Cortex-M4_nofpu.a(doprntx.o)
 .bss           0x1ffff970        0x0 F:/Code/chinaums2.1_20140929/libs/libc_Cortex-M4_nofpu.a(memchr.o)
 *(.bss.*)
 .bss.sysapi    0x1ffff970        0x4 F:/Code/chinaums2.1_20140929/configs/ME30/NDK_Sysdep_ME30.o
                0x1ffff970                sysapi
 .bss.last.3726
                0x1ffff974        0x4 F:/Code/chinaums2.1_20140929/libs/libc_Cortex-M4_nofpu.a(strtok.o)
 *(COMMON)
                0x1ffff978                . = ALIGN (0x4)
                0x1ffff978                _ebss = .
                0x1ffff978                _end = .

.ARM.exidx      0x1ffff978        0x0
                0x1ffff978                . = ALIGN (0x4)
 *(.exidx)
 *(.exidx.*)
START GROUP
LOAD F:/Code/chinaums2.1_20140929/libs/libc_Cortex-M4_nofpu.a
LOAD F:/Code/chinaums2.1_20140929/libs/libemvNDK_POS.a
LOAD F:/Code/chinaums2.1_20140929/libs/lib_keyloader.a
END GROUP
OUTPUT(F:\Code\chinaums2.1_20140929\build\common\ME30/common_ME30.elf elf32-littlearm)

.comment        0x00000000       0xa0
 .comment       0x00000000       0x70 F:/Code/chinaums2.1_20140929/configs/ME30/NDK_Sysdep_ME30.o
                                 0x71 (size before relaxing)
 .comment       0x00000070       0x30 F:\Code\chinaums2.1_20140929\build\common\ME30/api/api.o
                                0x157 (size before relaxing)
 .comment       0x00000000      0x21b F:\Code\chinaums2.1_20140929\build\common\ME30/cmd/cmd.o
 .comment       0x00000000       0x31 F:\Code\chinaums2.1_20140929\build\common\ME30/app/app.o
 .comment       0x00000000       0x71 F:/Code/chinaums2.1_20140929/libs/libc_Cortex-M4_nofpu.a(atoi.o)
 .comment       0x00000000       0x71 F:/Code/chinaums2.1_20140929/libs/libc_Cortex-M4_nofpu.a(memcmp.o)
 .comment       0x00000000       0x71 F:/Code/chinaums2.1_20140929/libs/libc_Cortex-M4_nofpu.a(memcpy.o)
 .comment       0x00000000       0x71 F:/Code/chinaums2.1_20140929/libs/libc_Cortex-M4_nofpu.a(memset.o)
 .comment       0x00000000       0x71 F:/Code/chinaums2.1_20140929/libs/libc_Cortex-M4_nofpu.a(sprintf.o)
 .comment       0x00000000       0x71 F:/Code/chinaums2.1_20140929/libs/libc_Cortex-M4_nofpu.a(strchr.o)
 .comment       0x00000000       0x71 F:/Code/chinaums2.1_20140929/libs/libc_Cortex-M4_nofpu.a(strcmp.o)
 .comment       0x00000000       0x71 F:/Code/chinaums2.1_20140929/libs/libc_Cortex-M4_nofpu.a(strcpy.o)
 .comment       0x00000000       0x71 F:/Code/chinaums2.1_20140929/libs/libc_Cortex-M4_nofpu.a(strlen.o)
 .comment       0x00000000       0x71 F:/Code/chinaums2.1_20140929/libs/libc_Cortex-M4_nofpu.a(strtok.o)
 .comment       0x00000000       0x71 F:/Code/chinaums2.1_20140929/libs/libc_Cortex-M4_nofpu.a(strtol.o)
 .comment       0x00000000       0x71 F:/Code/chinaums2.1_20140929/libs/libc_Cortex-M4_nofpu.a(ctype.o)
 .comment       0x00000000       0x71 F:/Code/chinaums2.1_20140929/libs/libc_Cortex-M4_nofpu.a(doprntx.o)
 .comment       0x00000000       0x71 F:/Code/chinaums2.1_20140929/libs/libc_Cortex-M4_nofpu.a(memchr.o)

.ARM.attributes
                0x00000000       0x33
 .ARM.attributes
                0x00000000       0x33 F:/Code/chinaums2.1_20140929/configs/ME30/NDK_Sysdep_ME30.o
 .ARM.attributes
                0x00000033       0x33 F:\Code\chinaums2.1_20140929\build\common\ME30/api/api.o
 .ARM.attributes
                0x00000066       0x33 F:\Code\chinaums2.1_20140929\build\common\ME30/cmd/cmd.o
 .ARM.attributes
                0x00000099       0x33 F:\Code\chinaums2.1_20140929\build\common\ME30/app/app.o
 .ARM.attributes
                0x000000cc       0x33 F:/Code/chinaums2.1_20140929/libs/libc_Cortex-M4_nofpu.a(atoi.o)
 .ARM.attributes
                0x000000ff       0x33 F:/Code/chinaums2.1_20140929/libs/libc_Cortex-M4_nofpu.a(memcmp.o)
 .ARM.attributes
                0x00000132       0x33 F:/Code/chinaums2.1_20140929/libs/libc_Cortex-M4_nofpu.a(memcpy.o)
 .ARM.attributes
                0x00000165       0x33 F:/Code/chinaums2.1_20140929/libs/libc_Cortex-M4_nofpu.a(memset.o)
 .ARM.attributes
                0x00000198       0x33 F:/Code/chinaums2.1_20140929/libs/libc_Cortex-M4_nofpu.a(sprintf.o)
 .ARM.attributes
                0x000001cb       0x33 F:/Code/chinaums2.1_20140929/libs/libc_Cortex-M4_nofpu.a(strchr.o)
 .ARM.attributes
                0x000001fe       0x33 F:/Code/chinaums2.1_20140929/libs/libc_Cortex-M4_nofpu.a(strcmp.o)
 .ARM.attributes
                0x00000231       0x33 F:/Code/chinaums2.1_20140929/libs/libc_Cortex-M4_nofpu.a(strcpy.o)
 .ARM.attributes
                0x00000264       0x33 F:/Code/chinaums2.1_20140929/libs/libc_Cortex-M4_nofpu.a(strlen.o)
 .ARM.attributes
                0x00000297       0x33 F:/Code/chinaums2.1_20140929/libs/libc_Cortex-M4_nofpu.a(strtok.o)
 .ARM.attributes
                0x000002ca       0x33 F:/Code/chinaums2.1_20140929/libs/libc_Cortex-M4_nofpu.a(strtol.o)
 .ARM.attributes
                0x000002fd       0x33 F:/Code/chinaums2.1_20140929/libs/libc_Cortex-M4_nofpu.a(ctype.o)
 .ARM.attributes
                0x00000330       0x33 F:/Code/chinaums2.1_20140929/libs/libc_Cortex-M4_nofpu.a(doprntx.o)
 .ARM.attributes
                0x00000363       0x33 F:/Code/chinaums2.1_20140929/libs/libc_Cortex-M4_nofpu.a(memchr.o)
